(dp1
S'name2'
p2
(dp3
S'sortable'
p4
I2
sS'sql'
p5
S'VARCHAR(255)'
p6
sS'length'
p7
I255
sS'notnull'
p8
I00
sS'unique'
p9
I00
sS'type'
p10
S'string'
p11
ssS'id'
p12
(dp13
g4
I1
sg5
S'INT AUTO_INCREMENT NOT NULL'
p14
sg7
I255
sg8
I00
sg9
I00
sg10
S'id'
p15
ss.