(dp1
S'output'
p2
S"<type 'exceptions.SyntaxError'> invalid syntax (controllers/default.py, line 20)"
p3
sS'layer'
p4
S'C:\\Sites\\web2py\\applications\\Sandbox\\controllers/default.py'
p5
sS'code'
p6
S'# -*- coding: utf-8 -*-\n### required - do no delete\ndef user(): return dict(form=auth())\ndef download(): return response.download(request,db)\ndef call(): return service()\n### end requires\ndef index():\n    return dict(message=T("index view"))\n\ndef error():\n    return dict()\n\ndef test():\n    if request.vars.visitor_name:\n        session.visitor_name = request.vars.visitor_name\n        redirect(URL(\'test2\'))\n    return dict()\n\ndef test2():\n    grid=SQLFORM.grid(db.(db.marketplace6, user_signature=False)\n    return locals()\n\nresponse._vars=response._caller(index)\n'
p7
sS'snapshot'
p8
(dp9
S'exception'
p10
(dp11
S'__getslice__'
p12
S"<method-wrapper '__getslice__' of exceptions.SyntaxError object>"
p13
sS'text'
p14
S"'    grid=SQLFORM.grid(db.(db.marketplace6, user_signature=False)\\n'"
p15
sS'__str__'
p16
S"<method-wrapper '__str__' of exceptions.SyntaxError object>"
p17
sS'__reduce__'
p18
S'<built-in method __reduce__ of exceptions.SyntaxError object>'
p19
sS'__dict__'
p20
S'{}'
p21
sS'__sizeof__'
p22
S'<built-in method __sizeof__ of exceptions.SyntaxError object>'
p23
sS'__init__'
p24
S"<method-wrapper '__init__' of exceptions.SyntaxError object>"
p25
sS'__setattr__'
p26
S"<method-wrapper '__setattr__' of exceptions.SyntaxError object>"
p27
sS'__reduce_ex__'
p28
S'<built-in method __reduce_ex__ of exceptions.SyntaxError object>'
p29
sS'__new__'
p30
S'<built-in method __new__ of type object>'
p31
sS'__format__'
p32
S'<built-in method __format__ of exceptions.SyntaxError object>'
p33
sS'__class__'
p34
S"<type 'exceptions.SyntaxError'>"
p35
sS'filename'
p36
S"r'C:\\Sites\\web2py\\applications\\Sandbox\\controllers/default.py'"
p37
sS'lineno'
p38
S'20'
p39
sS'msg'
p40
S"'invalid syntax'"
p41
sS'__doc__'
p42
S"'Invalid syntax.'"
p43
sS'__getitem__'
p44
S"<method-wrapper '__getitem__' of exceptions.SyntaxError object>"
p45
sS'__setstate__'
p46
S'<built-in method __setstate__ of exceptions.SyntaxError object>'
p47
sS'__getattribute__'
p48
S"<method-wrapper '__getattribute__' of exceptions.SyntaxError object>"
p49
sS'print_file_and_line'
p50
S'None'
p51
sS'args'
p52
S"('invalid syntax', (r'C:\\Sites\\web2py\\applications\\Sandbox\\controllers/default.py', 20, 26, '    grid=SQLFORM.grid(db.(db.marketplace6, user_signature=False)\\n'))"
p53
sS'__subclasshook__'
p54
S'<built-in method __subclasshook__ of type object>'
p55
sS'offset'
p56
S'26'
p57
sS'__unicode__'
p58
S'<built-in method __unicode__ of exceptions.SyntaxError object>'
p59
sS'__delattr__'
p60
S"<method-wrapper '__delattr__' of exceptions.SyntaxError object>"
p61
sS'__repr__'
p62
S"<method-wrapper '__repr__' of exceptions.SyntaxError object>"
p63
sS'__hash__'
p64
S"<method-wrapper '__hash__' of exceptions.SyntaxError object>"
p65
ssS'evalue'
p66
S'invalid syntax (controllers/default.py, line 20)'
p67
sS'request'
p68
ccopy_reg
_reconstructor
p69
(cgluon.html
BEAUTIFY
p70
c__builtin__
object
p71
NtRp72
(dp73
S'attributes'
p74
(dp75
sS'components'
p76
(lp77
g69
(cgluon.html
TABLE
p78
g71
NtRp79
(dp80
g74
(dp81
S'level'
p82
I5
ssS'parent'
p83
Nsg76
(lp84
g69
(cgluon.html
TR
p85
g71
NtRp86
(dp87
g74
(dp88
sg83
g79
sg76
(lp89
g69
(cgluon.html
TD
p90
g71
NtRp91
(dp92
g74
(dp93
S'_style'
p94
S'font-weight:bold;vertical-align:top'
p95
ssg83
g86
sg76
(lp96
S'ajax'
p97
asbag69
(g90
g71
NtRp98
(dp99
g74
(dp100
S'_valign'
p101
S'top'
p102
ssg83
g86
sg76
(lp103
S':'
asbag69
(g90
g71
NtRp104
(dp105
g74
(dp106
sg83
g86
sg76
(lp107
g69
(g70
g71
NtRp108
(dp109
g74
(dp110
g82
I5
ssg83
g104
sg76
(lp111
S'False'
p112
asbasbasbag69
(g85
g71
NtRp113
(dp114
g74
(dp115
sg83
g79
sg76
(lp116
g69
(g90
g71
NtRp117
(dp118
g74
(dp119
g94
g95
ssg83
g113
sg76
(lp120
S'application'
p121
asbag69
(g90
g71
NtRp122
(dp123
g74
(dp124
g101
g102
ssg83
g113
sg76
(lp125
S':'
asbag69
(g90
g71
NtRp126
(dp127
g74
(dp128
sg83
g113
sg76
(lp129
g69
(g70
g71
NtRp130
(dp131
g74
(dp132
g82
I5
ssg83
g126
sg76
(lp133
S'Sandbox'
p134
asbasbasbag69
(g85
g71
NtRp135
(dp136
g74
(dp137
sg83
g79
sg76
(lp138
g69
(g90
g71
NtRp139
(dp140
g74
(dp141
g94
g95
ssg83
g135
sg76
(lp142
g52
asbag69
(g90
g71
NtRp143
(dp144
g74
(dp145
g101
g102
ssg83
g135
sg76
(lp146
S':'
asbag69
(g90
g71
NtRp147
(dp148
g74
(dp149
sg83
g135
sg76
(lp150
g69
(g70
g71
NtRp151
(dp152
g74
(dp153
g82
I5
ssg83
g147
sg76
(lp154
g69
(g78
g71
NtRp155
(dp156
g74
(dp157
g82
I4
ssg83
Nsg76
(lp158
sbasbasbasbag69
(g85
g71
NtRp159
(dp160
g74
(dp161
sg83
g79
sg76
(lp162
g69
(g90
g71
NtRp163
(dp164
g74
(dp165
g94
g95
ssg83
g159
sg76
(lp166
S'body'
p167
asbag69
(g90
g71
NtRp168
(dp169
g74
(dp170
g101
g102
ssg83
g159
sg76
(lp171
S':'
asbag69
(g90
g71
NtRp172
(dp173
g74
(dp174
sg83
g159
sg76
(lp175
g69
(g70
g71
NtRp176
(dp177
g74
(dp178
g82
I5
ssg83
g172
sg76
(lp179
S'<cStringIO.StringO object at 0x0329AF20>'
p180
asbasbasbag69
(g85
g71
NtRp181
(dp182
g74
(dp183
sg83
g79
sg76
(lp184
g69
(g90
g71
NtRp185
(dp186
g74
(dp187
g94
g95
ssg83
g181
sg76
(lp188
S'cid'
p189
asbag69
(g90
g71
NtRp190
(dp191
g74
(dp192
g101
g102
ssg83
g181
sg76
(lp193
S':'
asbag69
(g90
g71
NtRp194
(dp195
g74
(dp196
sg83
g181
sg76
(lp197
g69
(g70
g71
NtRp198
(dp199
g74
(dp200
g82
I5
ssg83
g194
sg76
(lp201
S'None'
p202
asbasbasbag69
(g85
g71
NtRp203
(dp204
g74
(dp205
sg83
g79
sg76
(lp206
g69
(g90
g71
NtRp207
(dp208
g74
(dp209
g94
g95
ssg83
g203
sg76
(lp210
S'client'
p211
asbag69
(g90
g71
NtRp212
(dp213
g74
(dp214
g101
g102
ssg83
g203
sg76
(lp215
S':'
asbag69
(g90
g71
NtRp216
(dp217
g74
(dp218
sg83
g203
sg76
(lp219
g69
(g70
g71
NtRp220
(dp221
g74
(dp222
g82
I5
ssg83
g216
sg76
(lp223
S'127.0.0.1'
p224
asbasbasbag69
(g85
g71
NtRp225
(dp226
g74
(dp227
sg83
g79
sg76
(lp228
g69
(g90
g71
NtRp229
(dp230
g74
(dp231
g94
g95
ssg83
g225
sg76
(lp232
S'controller'
p233
asbag69
(g90
g71
NtRp234
(dp235
g74
(dp236
g101
g102
ssg83
g225
sg76
(lp237
S':'
asbag69
(g90
g71
NtRp238
(dp239
g74
(dp240
sg83
g225
sg76
(lp241
g69
(g70
g71
NtRp242
(dp243
g74
(dp244
g82
I5
ssg83
g238
sg76
(lp245
S'default'
p246
asbasbasbag69
(g85
g71
NtRp247
(dp248
g74
(dp249
sg83
g79
sg76
(lp250
g69
(g90
g71
NtRp251
(dp252
g74
(dp253
g94
g95
ssg83
g247
sg76
(lp254
S'cookies'
p255
asbag69
(g90
g71
NtRp256
(dp257
g74
(dp258
g101
g102
ssg83
g247
sg76
(lp259
S':'
asbag69
(g90
g71
NtRp260
(dp261
g74
(dp262
sg83
g247
sg76
(lp263
g69
(g70
g71
NtRp264
(dp265
g74
(dp266
g82
I5
ssg83
g260
sg76
(lp267
g69
(g78
g71
NtRp268
(dp269
g74
(dp270
g82
I4
ssg83
Nsg76
(lp271
g69
(g85
g71
NtRp272
(dp273
g74
(dp274
sg83
g268
sg76
(lp275
g69
(g90
g71
NtRp276
(dp277
g74
(dp278
g94
g95
ssg83
g272
sg76
(lp279
S'session_id_admin'
p280
asbag69
(g90
g71
NtRp281
(dp282
g74
(dp283
g101
g102
ssg83
g272
sg76
(lp284
S':'
asbag69
(g90
g71
NtRp285
(dp286
g74
(dp287
sg83
g272
sg76
(lp288
g69
(g70
g71
NtRp289
(dp290
g74
(dp291
g82
I4
ssg83
g285
sg76
(lp292
S'127.0.0.1-5be0e53c-22e7-405b-bb6f-5fe9af19b463'
p293
ag69
(g78
g71
NtRp294
(dp295
g74
(dp296
g82
I3
ssg83
Nsg76
(lp297
g69
(g85
g71
NtRp298
(dp299
g74
(dp300
sg83
g294
sg76
(lp301
g69
(g90
g71
NtRp302
(dp303
g74
(dp304
g94
g95
ssg83
g298
sg76
(lp305
S'comment'
p306
asbag69
(g90
g71
NtRp307
(dp308
g74
(dp309
g101
g102
ssg83
g298
sg76
(lp310
S':'
asbag69
(g90
g71
NtRp311
(dp312
g74
(dp313
sg83
g298
sg76
(lp314
g69
(g70
g71
NtRp315
(dp316
g74
(dp317
g82
I3
ssg83
g311
sg76
(lp318
S''
asbasbasbag69
(g85
g71
NtRp319
(dp320
g74
(dp321
sg83
g294
sg76
(lp322
g69
(g90
g71
NtRp323
(dp324
g74
(dp325
g94
g95
ssg83
g319
sg76
(lp326
S'domain'
p327
asbag69
(g90
g71
NtRp328
(dp329
g74
(dp330
g101
g102
ssg83
g319
sg76
(lp331
S':'
asbag69
(g90
g71
NtRp332
(dp333
g74
(dp334
sg83
g319
sg76
(lp335
g69
(g70
g71
NtRp336
(dp337
g74
(dp338
g82
I3
ssg83
g332
sg76
(lp339
S''
asbasbasbag69
(g85
g71
NtRp340
(dp341
g74
(dp342
sg83
g294
sg76
(lp343
g69
(g90
g71
NtRp344
(dp345
g74
(dp346
g94
g95
ssg83
g340
sg76
(lp347
S'expires'
p348
asbag69
(g90
g71
NtRp349
(dp350
g74
(dp351
g101
g102
ssg83
g340
sg76
(lp352
S':'
asbag69
(g90
g71
NtRp353
(dp354
g74
(dp355
sg83
g340
sg76
(lp356
g69
(g70
g71
NtRp357
(dp358
g74
(dp359
g82
I3
ssg83
g353
sg76
(lp360
S''
asbasbasbag69
(g85
g71
NtRp361
(dp362
g74
(dp363
sg83
g294
sg76
(lp364
g69
(g90
g71
NtRp365
(dp366
g74
(dp367
g94
g95
ssg83
g361
sg76
(lp368
S'httponly'
p369
asbag69
(g90
g71
NtRp370
(dp371
g74
(dp372
g101
g102
ssg83
g361
sg76
(lp373
S':'
asbag69
(g90
g71
NtRp374
(dp375
g74
(dp376
sg83
g361
sg76
(lp377
g69
(g70
g71
NtRp378
(dp379
g74
(dp380
g82
I3
ssg83
g374
sg76
(lp381
S''
asbasbasbag69
(g85
g71
NtRp382
(dp383
g74
(dp384
sg83
g294
sg76
(lp385
g69
(g90
g71
NtRp386
(dp387
g74
(dp388
g94
g95
ssg83
g382
sg76
(lp389
S'max-age'
p390
asbag69
(g90
g71
NtRp391
(dp392
g74
(dp393
g101
g102
ssg83
g382
sg76
(lp394
S':'
asbag69
(g90
g71
NtRp395
(dp396
g74
(dp397
sg83
g382
sg76
(lp398
g69
(g70
g71
NtRp399
(dp400
g74
(dp401
g82
I3
ssg83
g395
sg76
(lp402
S''
asbasbasbag69
(g85
g71
NtRp403
(dp404
g74
(dp405
sg83
g294
sg76
(lp406
g69
(g90
g71
NtRp407
(dp408
g74
(dp409
g94
g95
ssg83
g403
sg76
(lp410
S'path'
p411
asbag69
(g90
g71
NtRp412
(dp413
g74
(dp414
g101
g102
ssg83
g403
sg76
(lp415
S':'
asbag69
(g90
g71
NtRp416
(dp417
g74
(dp418
sg83
g403
sg76
(lp419
g69
(g70
g71
NtRp420
(dp421
g74
(dp422
g82
I3
ssg83
g416
sg76
(lp423
S''
asbasbasbag69
(g85
g71
NtRp424
(dp425
g74
(dp426
sg83
g294
sg76
(lp427
g69
(g90
g71
NtRp428
(dp429
g74
(dp430
g94
g95
ssg83
g424
sg76
(lp431
S'secure'
p432
asbag69
(g90
g71
NtRp433
(dp434
g74
(dp435
g101
g102
ssg83
g424
sg76
(lp436
S':'
asbag69
(g90
g71
NtRp437
(dp438
g74
(dp439
sg83
g424
sg76
(lp440
g69
(g70
g71
NtRp441
(dp442
g74
(dp443
g82
I3
ssg83
g437
sg76
(lp444
S''
asbasbasbag69
(g85
g71
NtRp445
(dp446
g74
(dp447
sg83
g294
sg76
(lp448
g69
(g90
g71
NtRp449
(dp450
g74
(dp451
g94
g95
ssg83
g445
sg76
(lp452
S'version'
p453
asbag69
(g90
g71
NtRp454
(dp455
g74
(dp456
g101
g102
ssg83
g445
sg76
(lp457
S':'
asbag69
(g90
g71
NtRp458
(dp459
g74
(dp460
sg83
g445
sg76
(lp461
g69
(g70
g71
NtRp462
(dp463
g74
(dp464
g82
I3
ssg83
g458
sg76
(lp465
S''
asbasbasbasbasbasbasbag69
(g85
g71
NtRp466
(dp467
g74
(dp468
sg83
g268
sg76
(lp469
g69
(g90
g71
NtRp470
(dp471
g74
(dp472
g94
g95
ssg83
g466
sg76
(lp473
S'session_id_instant_press'
p474
asbag69
(g90
g71
NtRp475
(dp476
g74
(dp477
g101
g102
ssg83
g466
sg76
(lp478
S':'
asbag69
(g90
g71
NtRp479
(dp480
g74
(dp481
sg83
g466
sg76
(lp482
g69
(g70
g71
NtRp483
(dp484
g74
(dp485
g82
I4
ssg83
g479
sg76
(lp486
S'127.0.0.1-06d6ae9e-160b-4c0f-ad40-38a2b9bcae08'
p487
ag69
(g78
g71
NtRp488
(dp489
g74
(dp490
g82
I3
ssg83
Nsg76
(lp491
g69
(g85
g71
NtRp492
(dp493
g74
(dp494
sg83
g488
sg76
(lp495
g69
(g90
g71
NtRp496
(dp497
g74
(dp498
g94
g95
ssg83
g492
sg76
(lp499
g306
asbag69
(g90
g71
NtRp500
(dp501
g74
(dp502
g101
g102
ssg83
g492
sg76
(lp503
S':'
asbag69
(g90
g71
NtRp504
(dp505
g74
(dp506
sg83
g492
sg76
(lp507
g69
(g70
g71
NtRp508
(dp509
g74
(dp510
g82
I3
ssg83
g504
sg76
(lp511
S''
asbasbasbag69
(g85
g71
NtRp512
(dp513
g74
(dp514
sg83
g488
sg76
(lp515
g69
(g90
g71
NtRp516
(dp517
g74
(dp518
g94
g95
ssg83
g512
sg76
(lp519
g327
asbag69
(g90
g71
NtRp520
(dp521
g74
(dp522
g101
g102
ssg83
g512
sg76
(lp523
S':'
asbag69
(g90
g71
NtRp524
(dp525
g74
(dp526
sg83
g512
sg76
(lp527
g69
(g70
g71
NtRp528
(dp529
g74
(dp530
g82
I3
ssg83
g524
sg76
(lp531
S''
asbasbasbag69
(g85
g71
NtRp532
(dp533
g74
(dp534
sg83
g488
sg76
(lp535
g69
(g90
g71
NtRp536
(dp537
g74
(dp538
g94
g95
ssg83
g532
sg76
(lp539
g348
asbag69
(g90
g71
NtRp540
(dp541
g74
(dp542
g101
g102
ssg83
g532
sg76
(lp543
S':'
asbag69
(g90
g71
NtRp544
(dp545
g74
(dp546
sg83
g532
sg76
(lp547
g69
(g70
g71
NtRp548
(dp549
g74
(dp550
g82
I3
ssg83
g544
sg76
(lp551
S''
asbasbasbag69
(g85
g71
NtRp552
(dp553
g74
(dp554
sg83
g488
sg76
(lp555
g69
(g90
g71
NtRp556
(dp557
g74
(dp558
g94
g95
ssg83
g552
sg76
(lp559
g369
asbag69
(g90
g71
NtRp560
(dp561
g74
(dp562
g101
g102
ssg83
g552
sg76
(lp563
S':'
asbag69
(g90
g71
NtRp564
(dp565
g74
(dp566
sg83
g552
sg76
(lp567
g69
(g70
g71
NtRp568
(dp569
g74
(dp570
g82
I3
ssg83
g564
sg76
(lp571
S''
asbasbasbag69
(g85
g71
NtRp572
(dp573
g74
(dp574
sg83
g488
sg76
(lp575
g69
(g90
g71
NtRp576
(dp577
g74
(dp578
g94
g95
ssg83
g572
sg76
(lp579
g390
asbag69
(g90
g71
NtRp580
(dp581
g74
(dp582
g101
g102
ssg83
g572
sg76
(lp583
S':'
asbag69
(g90
g71
NtRp584
(dp585
g74
(dp586
sg83
g572
sg76
(lp587
g69
(g70
g71
NtRp588
(dp589
g74
(dp590
g82
I3
ssg83
g584
sg76
(lp591
S''
asbasbasbag69
(g85
g71
NtRp592
(dp593
g74
(dp594
sg83
g488
sg76
(lp595
g69
(g90
g71
NtRp596
(dp597
g74
(dp598
g94
g95
ssg83
g592
sg76
(lp599
g411
asbag69
(g90
g71
NtRp600
(dp601
g74
(dp602
g101
g102
ssg83
g592
sg76
(lp603
S':'
asbag69
(g90
g71
NtRp604
(dp605
g74
(dp606
sg83
g592
sg76
(lp607
g69
(g70
g71
NtRp608
(dp609
g74
(dp610
g82
I3
ssg83
g604
sg76
(lp611
S''
asbasbasbag69
(g85
g71
NtRp612
(dp613
g74
(dp614
sg83
g488
sg76
(lp615
g69
(g90
g71
NtRp616
(dp617
g74
(dp618
g94
g95
ssg83
g612
sg76
(lp619
g432
asbag69
(g90
g71
NtRp620
(dp621
g74
(dp622
g101
g102
ssg83
g612
sg76
(lp623
S':'
asbag69
(g90
g71
NtRp624
(dp625
g74
(dp626
sg83
g612
sg76
(lp627
g69
(g70
g71
NtRp628
(dp629
g74
(dp630
g82
I3
ssg83
g624
sg76
(lp631
S''
asbasbasbag69
(g85
g71
NtRp632
(dp633
g74
(dp634
sg83
g488
sg76
(lp635
g69
(g90
g71
NtRp636
(dp637
g74
(dp638
g94
g95
ssg83
g632
sg76
(lp639
g453
asbag69
(g90
g71
NtRp640
(dp641
g74
(dp642
g101
g102
ssg83
g632
sg76
(lp643
S':'
asbag69
(g90
g71
NtRp644
(dp645
g74
(dp646
sg83
g632
sg76
(lp647
g69
(g70
g71
NtRp648
(dp649
g74
(dp650
g82
I3
ssg83
g644
sg76
(lp651
S''
asbasbasbasbasbasbasbag69
(g85
g71
NtRp652
(dp653
g74
(dp654
sg83
g268
sg76
(lp655
g69
(g90
g71
NtRp656
(dp657
g74
(dp658
g94
g95
ssg83
g652
sg76
(lp659
S'session_id_sandbox'
p660
asbag69
(g90
g71
NtRp661
(dp662
g74
(dp663
g101
g102
ssg83
g652
sg76
(lp664
S':'
asbag69
(g90
g71
NtRp665
(dp666
g74
(dp667
sg83
g652
sg76
(lp668
g69
(g70
g71
NtRp669
(dp670
g74
(dp671
g82
I4
ssg83
g665
sg76
(lp672
S'127.0.0.1-606fae34-d7fa-4ca2-bcbd-6a2802858f27'
p673
ag69
(g78
g71
NtRp674
(dp675
g74
(dp676
g82
I3
ssg83
Nsg76
(lp677
g69
(g85
g71
NtRp678
(dp679
g74
(dp680
sg83
g674
sg76
(lp681
g69
(g90
g71
NtRp682
(dp683
g74
(dp684
g94
g95
ssg83
g678
sg76
(lp685
g306
asbag69
(g90
g71
NtRp686
(dp687
g74
(dp688
g101
g102
ssg83
g678
sg76
(lp689
S':'
asbag69
(g90
g71
NtRp690
(dp691
g74
(dp692
sg83
g678
sg76
(lp693
g69
(g70
g71
NtRp694
(dp695
g74
(dp696
g82
I3
ssg83
g690
sg76
(lp697
S''
asbasbasbag69
(g85
g71
NtRp698
(dp699
g74
(dp700
sg83
g674
sg76
(lp701
g69
(g90
g71
NtRp702
(dp703
g74
(dp704
g94
g95
ssg83
g698
sg76
(lp705
g327
asbag69
(g90
g71
NtRp706
(dp707
g74
(dp708
g101
g102
ssg83
g698
sg76
(lp709
S':'
asbag69
(g90
g71
NtRp710
(dp711
g74
(dp712
sg83
g698
sg76
(lp713
g69
(g70
g71
NtRp714
(dp715
g74
(dp716
g82
I3
ssg83
g710
sg76
(lp717
S''
asbasbasbag69
(g85
g71
NtRp718
(dp719
g74
(dp720
sg83
g674
sg76
(lp721
g69
(g90
g71
NtRp722
(dp723
g74
(dp724
g94
g95
ssg83
g718
sg76
(lp725
g348
asbag69
(g90
g71
NtRp726
(dp727
g74
(dp728
g101
g102
ssg83
g718
sg76
(lp729
S':'
asbag69
(g90
g71
NtRp730
(dp731
g74
(dp732
sg83
g718
sg76
(lp733
g69
(g70
g71
NtRp734
(dp735
g74
(dp736
g82
I3
ssg83
g730
sg76
(lp737
S''
asbasbasbag69
(g85
g71
NtRp738
(dp739
g74
(dp740
sg83
g674
sg76
(lp741
g69
(g90
g71
NtRp742
(dp743
g74
(dp744
g94
g95
ssg83
g738
sg76
(lp745
g369
asbag69
(g90
g71
NtRp746
(dp747
g74
(dp748
g101
g102
ssg83
g738
sg76
(lp749
S':'
asbag69
(g90
g71
NtRp750
(dp751
g74
(dp752
sg83
g738
sg76
(lp753
g69
(g70
g71
NtRp754
(dp755
g74
(dp756
g82
I3
ssg83
g750
sg76
(lp757
S''
asbasbasbag69
(g85
g71
NtRp758
(dp759
g74
(dp760
sg83
g674
sg76
(lp761
g69
(g90
g71
NtRp762
(dp763
g74
(dp764
g94
g95
ssg83
g758
sg76
(lp765
g390
asbag69
(g90
g71
NtRp766
(dp767
g74
(dp768
g101
g102
ssg83
g758
sg76
(lp769
S':'
asbag69
(g90
g71
NtRp770
(dp771
g74
(dp772
sg83
g758
sg76
(lp773
g69
(g70
g71
NtRp774
(dp775
g74
(dp776
g82
I3
ssg83
g770
sg76
(lp777
S''
asbasbasbag69
(g85
g71
NtRp778
(dp779
g74
(dp780
sg83
g674
sg76
(lp781
g69
(g90
g71
NtRp782
(dp783
g74
(dp784
g94
g95
ssg83
g778
sg76
(lp785
g411
asbag69
(g90
g71
NtRp786
(dp787
g74
(dp788
g101
g102
ssg83
g778
sg76
(lp789
S':'
asbag69
(g90
g71
NtRp790
(dp791
g74
(dp792
sg83
g778
sg76
(lp793
g69
(g70
g71
NtRp794
(dp795
g74
(dp796
g82
I3
ssg83
g790
sg76
(lp797
S''
asbasbasbag69
(g85
g71
NtRp798
(dp799
g74
(dp800
sg83
g674
sg76
(lp801
g69
(g90
g71
NtRp802
(dp803
g74
(dp804
g94
g95
ssg83
g798
sg76
(lp805
g432
asbag69
(g90
g71
NtRp806
(dp807
g74
(dp808
g101
g102
ssg83
g798
sg76
(lp809
S':'
asbag69
(g90
g71
NtRp810
(dp811
g74
(dp812
sg83
g798
sg76
(lp813
g69
(g70
g71
NtRp814
(dp815
g74
(dp816
g82
I3
ssg83
g810
sg76
(lp817
S''
asbasbasbag69
(g85
g71
NtRp818
(dp819
g74
(dp820
sg83
g674
sg76
(lp821
g69
(g90
g71
NtRp822
(dp823
g74
(dp824
g94
g95
ssg83
g818
sg76
(lp825
g453
asbag69
(g90
g71
NtRp826
(dp827
g74
(dp828
g101
g102
ssg83
g818
sg76
(lp829
S':'
asbag69
(g90
g71
NtRp830
(dp831
g74
(dp832
sg83
g818
sg76
(lp833
g69
(g70
g71
NtRp834
(dp835
g74
(dp836
g82
I3
ssg83
g830
sg76
(lp837
S''
asbasbasbasbasbasbasbag69
(g85
g71
NtRp838
(dp839
g74
(dp840
sg83
g268
sg76
(lp841
g69
(g90
g71
NtRp842
(dp843
g74
(dp844
g94
g95
ssg83
g838
sg76
(lp845
S'session_id_welcome'
p846
asbag69
(g90
g71
NtRp847
(dp848
g74
(dp849
g101
g102
ssg83
g838
sg76
(lp850
S':'
asbag69
(g90
g71
NtRp851
(dp852
g74
(dp853
sg83
g838
sg76
(lp854
g69
(g70
g71
NtRp855
(dp856
g74
(dp857
g82
I4
ssg83
g851
sg76
(lp858
S'127.0.0.1-0180d7b2-cca8-4adc-a4e9-0b2069115f18'
p859
ag69
(g78
g71
NtRp860
(dp861
g74
(dp862
g82
I3
ssg83
Nsg76
(lp863
g69
(g85
g71
NtRp864
(dp865
g74
(dp866
sg83
g860
sg76
(lp867
g69
(g90
g71
NtRp868
(dp869
g74
(dp870
g94
g95
ssg83
g864
sg76
(lp871
g306
asbag69
(g90
g71
NtRp872
(dp873
g74
(dp874
g101
g102
ssg83
g864
sg76
(lp875
S':'
asbag69
(g90
g71
NtRp876
(dp877
g74
(dp878
sg83
g864
sg76
(lp879
g69
(g70
g71
NtRp880
(dp881
g74
(dp882
g82
I3
ssg83
g876
sg76
(lp883
S''
asbasbasbag69
(g85
g71
NtRp884
(dp885
g74
(dp886
sg83
g860
sg76
(lp887
g69
(g90
g71
NtRp888
(dp889
g74
(dp890
g94
g95
ssg83
g884
sg76
(lp891
g327
asbag69
(g90
g71
NtRp892
(dp893
g74
(dp894
g101
g102
ssg83
g884
sg76
(lp895
S':'
asbag69
(g90
g71
NtRp896
(dp897
g74
(dp898
sg83
g884
sg76
(lp899
g69
(g70
g71
NtRp900
(dp901
g74
(dp902
g82
I3
ssg83
g896
sg76
(lp903
S''
asbasbasbag69
(g85
g71
NtRp904
(dp905
g74
(dp906
sg83
g860
sg76
(lp907
g69
(g90
g71
NtRp908
(dp909
g74
(dp910
g94
g95
ssg83
g904
sg76
(lp911
g348
asbag69
(g90
g71
NtRp912
(dp913
g74
(dp914
g101
g102
ssg83
g904
sg76
(lp915
S':'
asbag69
(g90
g71
NtRp916
(dp917
g74
(dp918
sg83
g904
sg76
(lp919
g69
(g70
g71
NtRp920
(dp921
g74
(dp922
g82
I3
ssg83
g916
sg76
(lp923
S''
asbasbasbag69
(g85
g71
NtRp924
(dp925
g74
(dp926
sg83
g860
sg76
(lp927
g69
(g90
g71
NtRp928
(dp929
g74
(dp930
g94
g95
ssg83
g924
sg76
(lp931
g369
asbag69
(g90
g71
NtRp932
(dp933
g74
(dp934
g101
g102
ssg83
g924
sg76
(lp935
S':'
asbag69
(g90
g71
NtRp936
(dp937
g74
(dp938
sg83
g924
sg76
(lp939
g69
(g70
g71
NtRp940
(dp941
g74
(dp942
g82
I3
ssg83
g936
sg76
(lp943
S''
asbasbasbag69
(g85
g71
NtRp944
(dp945
g74
(dp946
sg83
g860
sg76
(lp947
g69
(g90
g71
NtRp948
(dp949
g74
(dp950
g94
g95
ssg83
g944
sg76
(lp951
g390
asbag69
(g90
g71
NtRp952
(dp953
g74
(dp954
g101
g102
ssg83
g944
sg76
(lp955
S':'
asbag69
(g90
g71
NtRp956
(dp957
g74
(dp958
sg83
g944
sg76
(lp959
g69
(g70
g71
NtRp960
(dp961
g74
(dp962
g82
I3
ssg83
g956
sg76
(lp963
S''
asbasbasbag69
(g85
g71
NtRp964
(dp965
g74
(dp966
sg83
g860
sg76
(lp967
g69
(g90
g71
NtRp968
(dp969
g74
(dp970
g94
g95
ssg83
g964
sg76
(lp971
g411
asbag69
(g90
g71
NtRp972
(dp973
g74
(dp974
g101
g102
ssg83
g964
sg76
(lp975
S':'
asbag69
(g90
g71
NtRp976
(dp977
g74
(dp978
sg83
g964
sg76
(lp979
g69
(g70
g71
NtRp980
(dp981
g74
(dp982
g82
I3
ssg83
g976
sg76
(lp983
S''
asbasbasbag69
(g85
g71
NtRp984
(dp985
g74
(dp986
sg83
g860
sg76
(lp987
g69
(g90
g71
NtRp988
(dp989
g74
(dp990
g94
g95
ssg83
g984
sg76
(lp991
g432
asbag69
(g90
g71
NtRp992
(dp993
g74
(dp994
g101
g102
ssg83
g984
sg76
(lp995
S':'
asbag69
(g90
g71
NtRp996
(dp997
g74
(dp998
sg83
g984
sg76
(lp999
g69
(g70
g71
NtRp1000
(dp1001
g74
(dp1002
g82
I3
ssg83
g996
sg76
(lp1003
S''
asbasbasbag69
(g85
g71
NtRp1004
(dp1005
g74
(dp1006
sg83
g860
sg76
(lp1007
g69
(g90
g71
NtRp1008
(dp1009
g74
(dp1010
g94
g95
ssg83
g1004
sg76
(lp1011
g453
asbag69
(g90
g71
NtRp1012
(dp1013
g74
(dp1014
g101
g102
ssg83
g1004
sg76
(lp1015
S':'
asbag69
(g90
g71
NtRp1016
(dp1017
g74
(dp1018
sg83
g1004
sg76
(lp1019
g69
(g70
g71
NtRp1020
(dp1021
g74
(dp1022
g82
I3
ssg83
g1016
sg76
(lp1023
S''
asbasbasbasbasbasbasbasbasbasbasbag69
(g85
g71
NtRp1024
(dp1025
g74
(dp1026
sg83
g79
sg76
(lp1027
g69
(g90
g71
NtRp1028
(dp1029
g74
(dp1030
g94
g95
ssg83
g1024
sg76
(lp1031
S'env'
p1032
asbag69
(g90
g71
NtRp1033
(dp1034
g74
(dp1035
g101
g102
ssg83
g1024
sg76
(lp1036
S':'
asbag69
(g90
g71
NtRp1037
(dp1038
g74
(dp1039
sg83
g1024
sg76
(lp1040
g69
(g70
g71
NtRp1041
(dp1042
g74
(dp1043
g82
I5
ssg83
g1037
sg76
(lp1044
g69
(g78
g71
NtRp1045
(dp1046
g74
(dp1047
g82
I4
ssg83
Nsg76
(lp1048
g69
(g85
g71
NtRp1049
(dp1050
g74
(dp1051
sg83
g1045
sg76
(lp1052
g69
(g90
g71
NtRp1053
(dp1054
g74
(dp1055
g94
g95
ssg83
g1049
sg76
(lp1056
S'app_folders'
p1057
asbag69
(g90
g71
NtRp1058
(dp1059
g74
(dp1060
g101
g102
ssg83
g1049
sg76
(lp1061
S':'
asbag69
(g90
g71
NtRp1062
(dp1063
g74
(dp1064
sg83
g1049
sg76
(lp1065
g69
(g70
g71
NtRp1066
(dp1067
g74
(dp1068
g82
I4
ssg83
g1062
sg76
(lp1069
S"set(['C:\\\\Sites\\\\web2py\\\\applications\\\\welcome\\\\', 'C:\\\\Sites\\\\web2py\\\\applications\\\\admin\\\\', 'C:\\\\Sites\\\\web2py\\\\applications\\\\Sandbox\\\\'])"
p1070
asbasbasbag69
(g85
g71
NtRp1071
(dp1072
g74
(dp1073
sg83
g1045
sg76
(lp1074
g69
(g90
g71
NtRp1075
(dp1076
g74
(dp1077
g94
g95
ssg83
g1071
sg76
(lp1078
S'applications_parent'
p1079
asbag69
(g90
g71
NtRp1080
(dp1081
g74
(dp1082
g101
g102
ssg83
g1071
sg76
(lp1083
S':'
asbag69
(g90
g71
NtRp1084
(dp1085
g74
(dp1086
sg83
g1071
sg76
(lp1087
g69
(g70
g71
NtRp1088
(dp1089
g74
(dp1090
g82
I4
ssg83
g1084
sg76
(lp1091
S'C:\\Sites\\web2py'
p1092
asbasbasbag69
(g85
g71
NtRp1093
(dp1094
g74
(dp1095
sg83
g1045
sg76
(lp1096
g69
(g90
g71
NtRp1097
(dp1098
g74
(dp1099
g94
g95
ssg83
g1093
sg76
(lp1100
S'cmd_args'
p1101
asbag69
(g90
g71
NtRp1102
(dp1103
g74
(dp1104
g101
g102
ssg83
g1093
sg76
(lp1105
S':'
asbag69
(g90
g71
NtRp1106
(dp1107
g74
(dp1108
sg83
g1093
sg76
(lp1109
g69
(g70
g71
NtRp1110
(dp1111
g74
(dp1112
g82
I4
ssg83
g1106
sg76
(lp1113
g69
(g78
g71
NtRp1114
(dp1115
g74
(dp1116
g82
I3
ssg83
Nsg76
(lp1117
sbasbasbasbag69
(g85
g71
NtRp1118
(dp1119
g74
(dp1120
sg83
g1045
sg76
(lp1121
g69
(g90
g71
NtRp1122
(dp1123
g74
(dp1124
g94
g95
ssg83
g1118
sg76
(lp1125
S'cmd_options'
p1126
asbag69
(g90
g71
NtRp1127
(dp1128
g74
(dp1129
g101
g102
ssg83
g1118
sg76
(lp1130
S':'
asbag69
(g90
g71
NtRp1131
(dp1132
g74
(dp1133
sg83
g1118
sg76
(lp1134
g69
(g70
g71
NtRp1135
(dp1136
g74
(dp1137
g82
I4
ssg83
g1131
sg76
(lp1138
S"<Values at 0x2e40a30: {'verbose': False, 'ip': '127.0.0.1', 'with_scheduler': False, 'ips': ['21.1.1.16', '192.168.214.1', '192.168.245.1'], 'shutdown_timeout': 5, 'taskbar': False, 'port': 8000, 'maxthreads': None, 'softcron': False, 'server_name': 'JPRT', 'bpython': False, 'nogui': False, 'pid_filename': 'httpserver.pid', 'extcron': False, 'runcron': False, 'run_system_tests': False, 'test': None, 'folder': 'C:\\\\Sites\\\\web2py', 'config': '', 'import_models': False, 'winservice': '', 'shell': None, 'run': '', 'log_filename': 'httpserver.log', 'debuglevel': 30, 'args': [''], 'socket_timeout': 5, 'ssl_ca_certificate': None, 'scheduler': None, 'profiler_filename': None, 'ssl_private_key': '', 'scheduler_groups': None, 'password': '<ask>', 'request_queue_size': 5, 'ssl_certificate': '', 'cronjob': False, 'numthreads': None, 'quiet': False, 'interfaces': None, 'minthreads': None, 'timeout': 10, 'plain': False, 'nobanner': False}>"
p1139
asbasbasbag69
(g85
g71
NtRp1140
(dp1141
g74
(dp1142
sg83
g1045
sg76
(lp1143
g69
(g90
g71
NtRp1144
(dp1145
g74
(dp1146
g94
g95
ssg83
g1140
sg76
(lp1147
S'db_sessions'
p1148
asbag69
(g90
g71
NtRp1149
(dp1150
g74
(dp1151
g101
g102
ssg83
g1140
sg76
(lp1152
S':'
asbag69
(g90
g71
NtRp1153
(dp1154
g74
(dp1155
sg83
g1140
sg76
(lp1156
g69
(g70
g71
NtRp1157
(dp1158
g74
(dp1159
g82
I4
ssg83
g1153
sg76
(lp1160
S'set([])'
p1161
asbasbasbag69
(g85
g71
NtRp1162
(dp1163
g74
(dp1164
sg83
g1045
sg76
(lp1165
g69
(g90
g71
NtRp1166
(dp1167
g74
(dp1168
g94
g95
ssg83
g1162
sg76
(lp1169
S'debugging'
p1170
asbag69
(g90
g71
NtRp1171
(dp1172
g74
(dp1173
g101
g102
ssg83
g1162
sg76
(lp1174
S':'
asbag69
(g90
g71
NtRp1175
(dp1176
g74
(dp1177
sg83
g1162
sg76
(lp1178
g69
(g70
g71
NtRp1179
(dp1180
g74
(dp1181
g82
I4
ssg83
g1175
sg76
(lp1182
g112
asbasbasbag69
(g85
g71
NtRp1183
(dp1184
g74
(dp1185
sg83
g1045
sg76
(lp1186
g69
(g90
g71
NtRp1187
(dp1188
g74
(dp1189
g94
g95
ssg83
g1183
sg76
(lp1190
S'gluon_parent'
p1191
asbag69
(g90
g71
NtRp1192
(dp1193
g74
(dp1194
g101
g102
ssg83
g1183
sg76
(lp1195
S':'
asbag69
(g90
g71
NtRp1196
(dp1197
g74
(dp1198
sg83
g1183
sg76
(lp1199
g69
(g70
g71
NtRp1200
(dp1201
g74
(dp1202
g82
I4
ssg83
g1196
sg76
(lp1203
S'C:\\Sites\\web2py'
p1204
asbasbasbag69
(g85
g71
NtRp1205
(dp1206
g74
(dp1207
sg83
g1045
sg76
(lp1208
g69
(g90
g71
NtRp1209
(dp1210
g74
(dp1211
g94
g95
ssg83
g1205
sg76
(lp1212
S'http_accept'
p1213
asbag69
(g90
g71
NtRp1214
(dp1215
g74
(dp1216
g101
g102
ssg83
g1205
sg76
(lp1217
S':'
asbag69
(g90
g71
NtRp1218
(dp1219
g74
(dp1220
sg83
g1205
sg76
(lp1221
g69
(g70
g71
NtRp1222
(dp1223
g74
(dp1224
g82
I4
ssg83
g1218
sg76
(lp1225
S'text/html,application/xhtml+xml,application/xml;q=0.9,*/*;q=0.8'
p1226
asbasbasbag69
(g85
g71
NtRp1227
(dp1228
g74
(dp1229
sg83
g1045
sg76
(lp1230
g69
(g90
g71
NtRp1231
(dp1232
g74
(dp1233
g94
g95
ssg83
g1227
sg76
(lp1234
S'http_accept_charset'
p1235
asbag69
(g90
g71
NtRp1236
(dp1237
g74
(dp1238
g101
g102
ssg83
g1227
sg76
(lp1239
S':'
asbag69
(g90
g71
NtRp1240
(dp1241
g74
(dp1242
sg83
g1227
sg76
(lp1243
g69
(g70
g71
NtRp1244
(dp1245
g74
(dp1246
g82
I4
ssg83
g1240
sg76
(lp1247
S'ISO-8859-1,utf-8;q=0.7,*;q=0.3'
p1248
asbasbasbag69
(g85
g71
NtRp1249
(dp1250
g74
(dp1251
sg83
g1045
sg76
(lp1252
g69
(g90
g71
NtRp1253
(dp1254
g74
(dp1255
g94
g95
ssg83
g1249
sg76
(lp1256
S'http_accept_encoding'
p1257
asbag69
(g90
g71
NtRp1258
(dp1259
g74
(dp1260
g101
g102
ssg83
g1249
sg76
(lp1261
S':'
asbag69
(g90
g71
NtRp1262
(dp1263
g74
(dp1264
sg83
g1249
sg76
(lp1265
g69
(g70
g71
NtRp1266
(dp1267
g74
(dp1268
g82
I4
ssg83
g1262
sg76
(lp1269
S'gzip,deflate,sdch'
p1270
asbasbasbag69
(g85
g71
NtRp1271
(dp1272
g74
(dp1273
sg83
g1045
sg76
(lp1274
g69
(g90
g71
NtRp1275
(dp1276
g74
(dp1277
g94
g95
ssg83
g1271
sg76
(lp1278
S'http_accept_language'
p1279
asbag69
(g90
g71
NtRp1280
(dp1281
g74
(dp1282
g101
g102
ssg83
g1271
sg76
(lp1283
S':'
asbag69
(g90
g71
NtRp1284
(dp1285
g74
(dp1286
sg83
g1271
sg76
(lp1287
g69
(g70
g71
NtRp1288
(dp1289
g74
(dp1290
g82
I4
ssg83
g1284
sg76
(lp1291
S'en-US,en;q=0.8'
p1292
asbasbasbag69
(g85
g71
NtRp1293
(dp1294
g74
(dp1295
sg83
g1045
sg76
(lp1296
g69
(g90
g71
NtRp1297
(dp1298
g74
(dp1299
g94
g95
ssg83
g1293
sg76
(lp1300
S'http_connection'
p1301
asbag69
(g90
g71
NtRp1302
(dp1303
g74
(dp1304
g101
g102
ssg83
g1293
sg76
(lp1305
S':'
asbag69
(g90
g71
NtRp1306
(dp1307
g74
(dp1308
sg83
g1293
sg76
(lp1309
g69
(g70
g71
NtRp1310
(dp1311
g74
(dp1312
g82
I4
ssg83
g1306
sg76
(lp1313
S'keep-alive'
p1314
asbasbasbag69
(g85
g71
NtRp1315
(dp1316
g74
(dp1317
sg83
g1045
sg76
(lp1318
g69
(g90
g71
NtRp1319
(dp1320
g74
(dp1321
g94
g95
ssg83
g1315
sg76
(lp1322
S'http_cookie'
p1323
asbag69
(g90
g71
NtRp1324
(dp1325
g74
(dp1326
g101
g102
ssg83
g1315
sg76
(lp1327
S':'
asbag69
(g90
g71
NtRp1328
(dp1329
g74
(dp1330
sg83
g1315
sg76
(lp1331
g69
(g70
g71
NtRp1332
(dp1333
g74
(dp1334
g82
I4
ssg83
g1328
sg76
(lp1335
S'session_id_sandbox=127.0.0.1-606fae34-d7fa-4ca2-bcbd-6a2802858f27; session_id_instant_press=127.0.0.1-06d6ae9e-160b-4c0f-ad40-38a2b9bcae08; session_id_welcome=127.0.0.1-0180d7b2-cca8-4adc-a4e9-0b2069115f18; session_id_admin=127.0.0.1-5be0e53c-22e7-405b-bb6f-5fe9af19b463'
p1336
asbasbasbag69
(g85
g71
NtRp1337
(dp1338
g74
(dp1339
sg83
g1045
sg76
(lp1340
g69
(g90
g71
NtRp1341
(dp1342
g74
(dp1343
g94
g95
ssg83
g1337
sg76
(lp1344
S'http_host'
p1345
asbag69
(g90
g71
NtRp1346
(dp1347
g74
(dp1348
g101
g102
ssg83
g1337
sg76
(lp1349
S':'
asbag69
(g90
g71
NtRp1350
(dp1351
g74
(dp1352
sg83
g1337
sg76
(lp1353
g69
(g70
g71
NtRp1354
(dp1355
g74
(dp1356
g82
I4
ssg83
g1350
sg76
(lp1357
S'127.0.0.1:8000'
p1358
asbasbasbag69
(g85
g71
NtRp1359
(dp1360
g74
(dp1361
sg83
g1045
sg76
(lp1362
g69
(g90
g71
NtRp1363
(dp1364
g74
(dp1365
g94
g95
ssg83
g1359
sg76
(lp1366
S'http_referer'
p1367
asbag69
(g90
g71
NtRp1368
(dp1369
g74
(dp1370
g101
g102
ssg83
g1359
sg76
(lp1371
S':'
asbag69
(g90
g71
NtRp1372
(dp1373
g74
(dp1374
sg83
g1359
sg76
(lp1375
g69
(g70
g71
NtRp1376
(dp1377
g74
(dp1378
g82
I4
ssg83
g1372
sg76
(lp1379
S'http://127.0.0.1:8000/admin/default/site'
p1380
asbasbasbag69
(g85
g71
NtRp1381
(dp1382
g74
(dp1383
sg83
g1045
sg76
(lp1384
g69
(g90
g71
NtRp1385
(dp1386
g74
(dp1387
g94
g95
ssg83
g1381
sg76
(lp1388
S'http_user_agent'
p1389
asbag69
(g90
g71
NtRp1390
(dp1391
g74
(dp1392
g101
g102
ssg83
g1381
sg76
(lp1393
S':'
asbag69
(g90
g71
NtRp1394
(dp1395
g74
(dp1396
sg83
g1381
sg76
(lp1397
g69
(g70
g71
NtRp1398
(dp1399
g74
(dp1400
g82
I4
ssg83
g1394
sg76
(lp1401
S'Mozilla/5.0 (Windows NT 6.1; WOW64) AppleWebKit/537.11 (KHTML, like Gecko) Chrome/23.0.1271.64 Safari/537.11'
p1402
asbasbasbag69
(g85
g71
NtRp1403
(dp1404
g74
(dp1405
sg83
g1045
sg76
(lp1406
g69
(g90
g71
NtRp1407
(dp1408
g74
(dp1409
g94
g95
ssg83
g1403
sg76
(lp1410
S'is_jython'
p1411
asbag69
(g90
g71
NtRp1412
(dp1413
g74
(dp1414
g101
g102
ssg83
g1403
sg76
(lp1415
S':'
asbag69
(g90
g71
NtRp1416
(dp1417
g74
(dp1418
sg83
g1403
sg76
(lp1419
g69
(g70
g71
NtRp1420
(dp1421
g74
(dp1422
g82
I4
ssg83
g1416
sg76
(lp1423
g112
asbasbasbag69
(g85
g71
NtRp1424
(dp1425
g74
(dp1426
sg83
g1045
sg76
(lp1427
g69
(g90
g71
NtRp1428
(dp1429
g74
(dp1430
g94
g95
ssg83
g1424
sg76
(lp1431
S'is_pypy'
p1432
asbag69
(g90
g71
NtRp1433
(dp1434
g74
(dp1435
g101
g102
ssg83
g1424
sg76
(lp1436
S':'
asbag69
(g90
g71
NtRp1437
(dp1438
g74
(dp1439
sg83
g1424
sg76
(lp1440
g69
(g70
g71
NtRp1441
(dp1442
g74
(dp1443
g82
I4
ssg83
g1437
sg76
(lp1444
g112
asbasbasbag69
(g85
g71
NtRp1445
(dp1446
g74
(dp1447
sg83
g1045
sg76
(lp1448
g69
(g90
g71
NtRp1449
(dp1450
g74
(dp1451
g94
g95
ssg83
g1445
sg76
(lp1452
S'local_hosts'
p1453
asbag69
(g90
g71
NtRp1454
(dp1455
g74
(dp1456
g101
g102
ssg83
g1445
sg76
(lp1457
S':'
asbag69
(g90
g71
NtRp1458
(dp1459
g74
(dp1460
sg83
g1445
sg76
(lp1461
g69
(g70
g71
NtRp1462
(dp1463
g74
(dp1464
g82
I4
ssg83
g1458
sg76
(lp1465
g69
(g78
g71
NtRp1466
(dp1467
g74
(dp1468
g82
I3
ssg83
Nsg76
(lp1469
g69
(g85
g71
NtRp1470
(dp1471
g74
(dp1472
sg83
g1466
sg76
(lp1473
g69
(g90
g71
NtRp1474
(dp1475
g74
(dp1476
sg83
g1470
sg76
(lp1477
g69
(g70
g71
NtRp1478
(dp1479
g74
(dp1480
g82
I3
ssg83
g1474
sg76
(lp1481
S'127.0.0.1'
p1482
asbasbasbag69
(g85
g71
NtRp1483
(dp1484
g74
(dp1485
sg83
g1466
sg76
(lp1486
g69
(g90
g71
NtRp1487
(dp1488
g74
(dp1489
sg83
g1483
sg76
(lp1490
g69
(g70
g71
NtRp1491
(dp1492
g74
(dp1493
g82
I3
ssg83
g1487
sg76
(lp1494
S'::ffff:127.0.0.1'
p1495
asbasbasbag69
(g85
g71
NtRp1496
(dp1497
g74
(dp1498
sg83
g1466
sg76
(lp1499
g69
(g90
g71
NtRp1500
(dp1501
g74
(dp1502
sg83
g1496
sg76
(lp1503
g69
(g70
g71
NtRp1504
(dp1505
g74
(dp1506
g82
I3
ssg83
g1500
sg76
(lp1507
S'JPRT'
p1508
asbasbasbag69
(g85
g71
NtRp1509
(dp1510
g74
(dp1511
sg83
g1466
sg76
(lp1512
g69
(g90
g71
NtRp1513
(dp1514
g74
(dp1515
sg83
g1509
sg76
(lp1516
g69
(g70
g71
NtRp1517
(dp1518
g74
(dp1519
g82
I3
ssg83
g1513
sg76
(lp1520
S'JPRT'
p1521
asbasbasbag69
(g85
g71
NtRp1522
(dp1523
g74
(dp1524
sg83
g1466
sg76
(lp1525
g69
(g90
g71
NtRp1526
(dp1527
g74
(dp1528
sg83
g1522
sg76
(lp1529
g69
(g70
g71
NtRp1530
(dp1531
g74
(dp1532
g82
I3
ssg83
g1526
sg76
(lp1533
S'192.168.214.1'
p1534
asbasbasbasbasbasbasbag69
(g85
g71
NtRp1535
(dp1536
g74
(dp1537
sg83
g1045
sg76
(lp1538
g69
(g90
g71
NtRp1539
(dp1540
g74
(dp1541
g94
g95
ssg83
g1535
sg76
(lp1542
S'path_info'
p1543
asbag69
(g90
g71
NtRp1544
(dp1545
g74
(dp1546
g101
g102
ssg83
g1535
sg76
(lp1547
S':'
asbag69
(g90
g71
NtRp1548
(dp1549
g74
(dp1550
sg83
g1535
sg76
(lp1551
g69
(g70
g71
NtRp1552
(dp1553
g74
(dp1554
g82
I4
ssg83
g1548
sg76
(lp1555
S'/Sandbox/default/index'
p1556
asbasbasbag69
(g85
g71
NtRp1557
(dp1558
g74
(dp1559
sg83
g1045
sg76
(lp1560
g69
(g90
g71
NtRp1561
(dp1562
g74
(dp1563
g94
g95
ssg83
g1557
sg76
(lp1564
S'query_string'
p1565
asbag69
(g90
g71
NtRp1566
(dp1567
g74
(dp1568
g101
g102
ssg83
g1557
sg76
(lp1569
S':'
asbag69
(g90
g71
NtRp1570
(dp1571
g74
(dp1572
sg83
g1557
sg76
(lp1573
g69
(g70
g71
NtRp1574
(dp1575
g74
(dp1576
g82
I4
ssg83
g1570
sg76
(lp1577
S''
asbasbasbag69
(g85
g71
NtRp1578
(dp1579
g74
(dp1580
sg83
g1045
sg76
(lp1581
g69
(g90
g71
NtRp1582
(dp1583
g74
(dp1584
g94
g95
ssg83
g1578
sg76
(lp1585
S'remote_addr'
p1586
asbag69
(g90
g71
NtRp1587
(dp1588
g74
(dp1589
g101
g102
ssg83
g1578
sg76
(lp1590
S':'
asbag69
(g90
g71
NtRp1591
(dp1592
g74
(dp1593
sg83
g1578
sg76
(lp1594
g69
(g70
g71
NtRp1595
(dp1596
g74
(dp1597
g82
I4
ssg83
g1591
sg76
(lp1598
g224
asbasbasbag69
(g85
g71
NtRp1599
(dp1600
g74
(dp1601
sg83
g1045
sg76
(lp1602
g69
(g90
g71
NtRp1603
(dp1604
g74
(dp1605
g94
g95
ssg83
g1599
sg76
(lp1606
S'remote_port'
p1607
asbag69
(g90
g71
NtRp1608
(dp1609
g74
(dp1610
g101
g102
ssg83
g1599
sg76
(lp1611
S':'
asbag69
(g90
g71
NtRp1612
(dp1613
g74
(dp1614
sg83
g1599
sg76
(lp1615
g69
(g70
g71
NtRp1616
(dp1617
g74
(dp1618
g82
I4
ssg83
g1612
sg76
(lp1619
S'52151'
p1620
asbasbasbag69
(g85
g71
NtRp1621
(dp1622
g74
(dp1623
sg83
g1045
sg76
(lp1624
g69
(g90
g71
NtRp1625
(dp1626
g74
(dp1627
g94
g95
ssg83
g1621
sg76
(lp1628
S'request_method'
p1629
asbag69
(g90
g71
NtRp1630
(dp1631
g74
(dp1632
g101
g102
ssg83
g1621
sg76
(lp1633
S':'
asbag69
(g90
g71
NtRp1634
(dp1635
g74
(dp1636
sg83
g1621
sg76
(lp1637
g69
(g70
g71
NtRp1638
(dp1639
g74
(dp1640
g82
I4
ssg83
g1634
sg76
(lp1641
S'GET'
p1642
asbasbasbag69
(g85
g71
NtRp1643
(dp1644
g74
(dp1645
sg83
g1045
sg76
(lp1646
g69
(g90
g71
NtRp1647
(dp1648
g74
(dp1649
g94
g95
ssg83
g1643
sg76
(lp1650
S'request_uri'
p1651
asbag69
(g90
g71
NtRp1652
(dp1653
g74
(dp1654
g101
g102
ssg83
g1643
sg76
(lp1655
S':'
asbag69
(g90
g71
NtRp1656
(dp1657
g74
(dp1658
sg83
g1643
sg76
(lp1659
g69
(g70
g71
NtRp1660
(dp1661
g74
(dp1662
g82
I4
ssg83
g1656
sg76
(lp1663
g1556
asbasbasbag69
(g85
g71
NtRp1664
(dp1665
g74
(dp1666
sg83
g1045
sg76
(lp1667
g69
(g90
g71
NtRp1668
(dp1669
g74
(dp1670
g94
g95
ssg83
g1664
sg76
(lp1671
S'script_name'
p1672
asbag69
(g90
g71
NtRp1673
(dp1674
g74
(dp1675
g101
g102
ssg83
g1664
sg76
(lp1676
S':'
asbag69
(g90
g71
NtRp1677
(dp1678
g74
(dp1679
sg83
g1664
sg76
(lp1680
g69
(g70
g71
NtRp1681
(dp1682
g74
(dp1683
g82
I4
ssg83
g1677
sg76
(lp1684
S''
asbasbasbag69
(g85
g71
NtRp1685
(dp1686
g74
(dp1687
sg83
g1045
sg76
(lp1688
g69
(g90
g71
NtRp1689
(dp1690
g74
(dp1691
g94
g95
ssg83
g1685
sg76
(lp1692
S'server_name'
p1693
asbag69
(g90
g71
NtRp1694
(dp1695
g74
(dp1696
g101
g102
ssg83
g1685
sg76
(lp1697
S':'
asbag69
(g90
g71
NtRp1698
(dp1699
g74
(dp1700
sg83
g1685
sg76
(lp1701
g69
(g70
g71
NtRp1702
(dp1703
g74
(dp1704
g82
I4
ssg83
g1698
sg76
(lp1705
g1521
asbasbasbag69
(g85
g71
NtRp1706
(dp1707
g74
(dp1708
sg83
g1045
sg76
(lp1709
g69
(g90
g71
NtRp1710
(dp1711
g74
(dp1712
g94
g95
ssg83
g1706
sg76
(lp1713
S'server_port'
p1714
asbag69
(g90
g71
NtRp1715
(dp1716
g74
(dp1717
g101
g102
ssg83
g1706
sg76
(lp1718
S':'
asbag69
(g90
g71
NtRp1719
(dp1720
g74
(dp1721
sg83
g1706
sg76
(lp1722
g69
(g70
g71
NtRp1723
(dp1724
g74
(dp1725
g82
I4
ssg83
g1719
sg76
(lp1726
S'8000'
p1727
asbasbasbag69
(g85
g71
NtRp1728
(dp1729
g74
(dp1730
sg83
g1045
sg76
(lp1731
g69
(g90
g71
NtRp1732
(dp1733
g74
(dp1734
g94
g95
ssg83
g1728
sg76
(lp1735
S'server_protocol'
p1736
asbag69
(g90
g71
NtRp1737
(dp1738
g74
(dp1739
g101
g102
ssg83
g1728
sg76
(lp1740
S':'
asbag69
(g90
g71
NtRp1741
(dp1742
g74
(dp1743
sg83
g1728
sg76
(lp1744
g69
(g70
g71
NtRp1745
(dp1746
g74
(dp1747
g82
I4
ssg83
g1741
sg76
(lp1748
S'HTTP/1.1'
p1749
asbasbasbag69
(g85
g71
NtRp1750
(dp1751
g74
(dp1752
sg83
g1045
sg76
(lp1753
g69
(g90
g71
NtRp1754
(dp1755
g74
(dp1756
g94
g95
ssg83
g1750
sg76
(lp1757
S'server_software'
p1758
asbag69
(g90
g71
NtRp1759
(dp1760
g74
(dp1761
g101
g102
ssg83
g1750
sg76
(lp1762
S':'
asbag69
(g90
g71
NtRp1763
(dp1764
g74
(dp1765
sg83
g1750
sg76
(lp1766
g69
(g70
g71
NtRp1767
(dp1768
g74
(dp1769
g82
I4
ssg83
g1763
sg76
(lp1770
S'Rocket 1.2.5'
p1771
asbasbasbag69
(g85
g71
NtRp1772
(dp1773
g74
(dp1774
sg83
g1045
sg76
(lp1775
g69
(g90
g71
NtRp1776
(dp1777
g74
(dp1778
g94
g95
ssg83
g1772
sg76
(lp1779
S'web2py_path'
p1780
asbag69
(g90
g71
NtRp1781
(dp1782
g74
(dp1783
g101
g102
ssg83
g1772
sg76
(lp1784
S':'
asbag69
(g90
g71
NtRp1785
(dp1786
g74
(dp1787
sg83
g1772
sg76
(lp1788
g69
(g70
g71
NtRp1789
(dp1790
g74
(dp1791
g82
I4
ssg83
g1785
sg76
(lp1792
g1092
asbasbasbag69
(g85
g71
NtRp1793
(dp1794
g74
(dp1795
sg83
g1045
sg76
(lp1796
g69
(g90
g71
NtRp1797
(dp1798
g74
(dp1799
g94
g95
ssg83
g1793
sg76
(lp1800
S'web2py_version'
p1801
asbag69
(g90
g71
NtRp1802
(dp1803
g74
(dp1804
g101
g102
ssg83
g1793
sg76
(lp1805
S':'
asbag69
(g90
g71
NtRp1806
(dp1807
g74
(dp1808
sg83
g1793
sg76
(lp1809
g69
(g70
g71
NtRp1810
(dp1811
g74
(dp1812
g82
I4
ssg83
g1806
sg76
(lp1813
g69
(g78
g71
NtRp1814
(dp1815
g74
(dp1816
g82
I3
ssg83
Nsg76
(lp1817
g69
(g85
g71
NtRp1818
(dp1819
g74
(dp1820
sg83
g1814
sg76
(lp1821
g69
(g90
g71
NtRp1822
(dp1823
g74
(dp1824
sg83
g1818
sg76
(lp1825
g69
(g70
g71
NtRp1826
(dp1827
g74
(dp1828
g82
I3
ssg83
g1822
sg76
(lp1829
S'2'
asbasbasbag69
(g85
g71
NtRp1830
(dp1831
g74
(dp1832
sg83
g1814
sg76
(lp1833
g69
(g90
g71
NtRp1834
(dp1835
g74
(dp1836
sg83
g1830
sg76
(lp1837
g69
(g70
g71
NtRp1838
(dp1839
g74
(dp1840
g82
I3
ssg83
g1834
sg76
(lp1841
S'2'
asbasbasbag69
(g85
g71
NtRp1842
(dp1843
g74
(dp1844
sg83
g1814
sg76
(lp1845
g69
(g90
g71
NtRp1846
(dp1847
g74
(dp1848
sg83
g1842
sg76
(lp1849
g69
(g70
g71
NtRp1850
(dp1851
g74
(dp1852
g82
I3
ssg83
g1846
sg76
(lp1853
S'1'
asbasbasbag69
(g85
g71
NtRp1854
(dp1855
g74
(dp1856
sg83
g1814
sg76
(lp1857
g69
(g90
g71
NtRp1858
(dp1859
g74
(dp1860
sg83
g1854
sg76
(lp1861
g69
(g70
g71
NtRp1862
(dp1863
g74
(dp1864
g82
I3
ssg83
g1858
sg76
(lp1865
S'datetime.datetime(2012, 10, 21, 16, 57, 4)'
p1866
asbasbasbag69
(g85
g71
NtRp1867
(dp1868
g74
(dp1869
sg83
g1814
sg76
(lp1870
g69
(g90
g71
NtRp1871
(dp1872
g74
(dp1873
sg83
g1867
sg76
(lp1874
g69
(g70
g71
NtRp1875
(dp1876
g74
(dp1877
g82
I3
ssg83
g1871
sg76
(lp1878
S'stable'
p1879
asbasbasbasbasbasbasbag69
(g85
g71
NtRp1880
(dp1881
g74
(dp1882
sg83
g1045
sg76
(lp1883
g69
(g90
g71
NtRp1884
(dp1885
g74
(dp1886
g94
g95
ssg83
g1880
sg76
(lp1887
S'wsgi_errors'
p1888
asbag69
(g90
g71
NtRp1889
(dp1890
g74
(dp1891
g101
g102
ssg83
g1880
sg76
(lp1892
S':'
asbag69
(g90
g71
NtRp1893
(dp1894
g74
(dp1895
sg83
g1880
sg76
(lp1896
g69
(g70
g71
NtRp1897
(dp1898
g74
(dp1899
g82
I4
ssg83
g1893
sg76
(lp1900
S"<open file '<stderr>', mode 'w' at 0x003250D0>"
p1901
asbasbasbag69
(g85
g71
NtRp1902
(dp1903
g74
(dp1904
sg83
g1045
sg76
(lp1905
g69
(g90
g71
NtRp1906
(dp1907
g74
(dp1908
g94
g95
ssg83
g1902
sg76
(lp1909
S'wsgi_file_wrapper'
p1910
asbag69
(g90
g71
NtRp1911
(dp1912
g74
(dp1913
g101
g102
ssg83
g1902
sg76
(lp1914
S':'
asbag69
(g90
g71
NtRp1915
(dp1916
g74
(dp1917
sg83
g1902
sg76
(lp1918
g69
(g70
g71
NtRp1919
(dp1920
g74
(dp1921
g82
I4
ssg83
g1915
sg76
(lp1922
S'<class wsgiref.util.FileWrapper at 0x02DEEDC0>'
p1923
asbasbasbag69
(g85
g71
NtRp1924
(dp1925
g74
(dp1926
sg83
g1045
sg76
(lp1927
g69
(g90
g71
NtRp1928
(dp1929
g74
(dp1930
g94
g95
ssg83
g1924
sg76
(lp1931
S'wsgi_input'
p1932
asbag69
(g90
g71
NtRp1933
(dp1934
g74
(dp1935
g101
g102
ssg83
g1924
sg76
(lp1936
S':'
asbag69
(g90
g71
NtRp1937
(dp1938
g74
(dp1939
sg83
g1924
sg76
(lp1940
g69
(g70
g71
NtRp1941
(dp1942
g74
(dp1943
g82
I4
ssg83
g1937
sg76
(lp1944
S'<socket._fileobject object at 0x06D7F030>'
p1945
asbasbasbag69
(g85
g71
NtRp1946
(dp1947
g74
(dp1948
sg83
g1045
sg76
(lp1949
g69
(g90
g71
NtRp1950
(dp1951
g74
(dp1952
g94
g95
ssg83
g1946
sg76
(lp1953
S'wsgi_multiprocess'
p1954
asbag69
(g90
g71
NtRp1955
(dp1956
g74
(dp1957
g101
g102
ssg83
g1946
sg76
(lp1958
S':'
asbag69
(g90
g71
NtRp1959
(dp1960
g74
(dp1961
sg83
g1946
sg76
(lp1962
g69
(g70
g71
NtRp1963
(dp1964
g74
(dp1965
g82
I4
ssg83
g1959
sg76
(lp1966
g112
asbasbasbag69
(g85
g71
NtRp1967
(dp1968
g74
(dp1969
sg83
g1045
sg76
(lp1970
g69
(g90
g71
NtRp1971
(dp1972
g74
(dp1973
g94
g95
ssg83
g1967
sg76
(lp1974
S'wsgi_multithread'
p1975
asbag69
(g90
g71
NtRp1976
(dp1977
g74
(dp1978
g101
g102
ssg83
g1967
sg76
(lp1979
S':'
asbag69
(g90
g71
NtRp1980
(dp1981
g74
(dp1982
sg83
g1967
sg76
(lp1983
g69
(g70
g71
NtRp1984
(dp1985
g74
(dp1986
g82
I4
ssg83
g1980
sg76
(lp1987
S'True'
p1988
asbasbasbag69
(g85
g71
NtRp1989
(dp1990
g74
(dp1991
sg83
g1045
sg76
(lp1992
g69
(g90
g71
NtRp1993
(dp1994
g74
(dp1995
g94
g95
ssg83
g1989
sg76
(lp1996
S'wsgi_run_once'
p1997
asbag69
(g90
g71
NtRp1998
(dp1999
g74
(dp2000
g101
g102
ssg83
g1989
sg76
(lp2001
S':'
asbag69
(g90
g71
NtRp2002
(dp2003
g74
(dp2004
sg83
g1989
sg76
(lp2005
g69
(g70
g71
NtRp2006
(dp2007
g74
(dp2008
g82
I4
ssg83
g2002
sg76
(lp2009
g112
asbasbasbag69
(g85
g71
NtRp2010
(dp2011
g74
(dp2012
sg83
g1045
sg76
(lp2013
g69
(g90
g71
NtRp2014
(dp2015
g74
(dp2016
g94
g95
ssg83
g2010
sg76
(lp2017
S'wsgi_url_scheme'
p2018
asbag69
(g90
g71
NtRp2019
(dp2020
g74
(dp2021
g101
g102
ssg83
g2010
sg76
(lp2022
S':'
asbag69
(g90
g71
NtRp2023
(dp2024
g74
(dp2025
sg83
g2010
sg76
(lp2026
g69
(g70
g71
NtRp2027
(dp2028
g74
(dp2029
g82
I4
ssg83
g2023
sg76
(lp2030
S'http'
p2031
asbasbasbag69
(g85
g71
NtRp2032
(dp2033
g74
(dp2034
sg83
g1045
sg76
(lp2035
g69
(g90
g71
NtRp2036
(dp2037
g74
(dp2038
g94
g95
ssg83
g2032
sg76
(lp2039
S'wsgi_version'
p2040
asbag69
(g90
g71
NtRp2041
(dp2042
g74
(dp2043
g101
g102
ssg83
g2032
sg76
(lp2044
S':'
asbag69
(g90
g71
NtRp2045
(dp2046
g74
(dp2047
sg83
g2032
sg76
(lp2048
g69
(g70
g71
NtRp2049
(dp2050
g74
(dp2051
g82
I4
ssg83
g2045
sg76
(lp2052
g69
(g78
g71
NtRp2053
(dp2054
g74
(dp2055
g82
I3
ssg83
Nsg76
(lp2056
g69
(g85
g71
NtRp2057
(dp2058
g74
(dp2059
sg83
g2053
sg76
(lp2060
g69
(g90
g71
NtRp2061
(dp2062
g74
(dp2063
sg83
g2057
sg76
(lp2064
g69
(g70
g71
NtRp2065
(dp2066
g74
(dp2067
g82
I3
ssg83
g2061
sg76
(lp2068
S'1'
asbasbasbag69
(g85
g71
NtRp2069
(dp2070
g74
(dp2071
sg83
g2053
sg76
(lp2072
g69
(g90
g71
NtRp2073
(dp2074
g74
(dp2075
sg83
g2069
sg76
(lp2076
g69
(g70
g71
NtRp2077
(dp2078
g74
(dp2079
g82
I3
ssg83
g2073
sg76
(lp2080
S'0'
asbasbasbasbasbasbasbasbasbasbasbag69
(g85
g71
NtRp2081
(dp2082
g74
(dp2083
sg83
g79
sg76
(lp2084
g69
(g90
g71
NtRp2085
(dp2086
g74
(dp2087
g94
g95
ssg83
g2081
sg76
(lp2088
S'extension'
p2089
asbag69
(g90
g71
NtRp2090
(dp2091
g74
(dp2092
g101
g102
ssg83
g2081
sg76
(lp2093
S':'
asbag69
(g90
g71
NtRp2094
(dp2095
g74
(dp2096
sg83
g2081
sg76
(lp2097
g69
(g70
g71
NtRp2098
(dp2099
g74
(dp2100
g82
I5
ssg83
g2094
sg76
(lp2101
S'html'
p2102
asbasbasbag69
(g85
g71
NtRp2103
(dp2104
g74
(dp2105
sg83
g79
sg76
(lp2106
g69
(g90
g71
NtRp2107
(dp2108
g74
(dp2109
g94
g95
ssg83
g2103
sg76
(lp2110
S'folder'
p2111
asbag69
(g90
g71
NtRp2112
(dp2113
g74
(dp2114
g101
g102
ssg83
g2103
sg76
(lp2115
S':'
asbag69
(g90
g71
NtRp2116
(dp2117
g74
(dp2118
sg83
g2103
sg76
(lp2119
g69
(g70
g71
NtRp2120
(dp2121
g74
(dp2122
g82
I5
ssg83
g2116
sg76
(lp2123
S'C:\\Sites\\web2py\\applications\\Sandbox\\'
p2124
asbasbasbag69
(g85
g71
NtRp2125
(dp2126
g74
(dp2127
sg83
g79
sg76
(lp2128
g69
(g90
g71
NtRp2129
(dp2130
g74
(dp2131
g94
g95
ssg83
g2125
sg76
(lp2132
S'function'
p2133
asbag69
(g90
g71
NtRp2134
(dp2135
g74
(dp2136
g101
g102
ssg83
g2125
sg76
(lp2137
S':'
asbag69
(g90
g71
NtRp2138
(dp2139
g74
(dp2140
sg83
g2125
sg76
(lp2141
g69
(g70
g71
NtRp2142
(dp2143
g74
(dp2144
g82
I5
ssg83
g2138
sg76
(lp2145
S'index'
p2146
asbasbasbag69
(g85
g71
NtRp2147
(dp2148
g74
(dp2149
sg83
g79
sg76
(lp2150
g69
(g90
g71
NtRp2151
(dp2152
g74
(dp2153
g94
g95
ssg83
g2147
sg76
(lp2154
S'get_vars'
p2155
asbag69
(g90
g71
NtRp2156
(dp2157
g74
(dp2158
g101
g102
ssg83
g2147
sg76
(lp2159
S':'
asbag69
(g90
g71
NtRp2160
(dp2161
g74
(dp2162
sg83
g2147
sg76
(lp2163
g69
(g70
g71
NtRp2164
(dp2165
g74
(dp2166
g82
I5
ssg83
g2160
sg76
(lp2167
g69
(g78
g71
NtRp2168
(dp2169
g74
(dp2170
g82
I4
ssg83
Nsg76
(lp2171
sbasbasbasbag69
(g85
g71
NtRp2172
(dp2173
g74
(dp2174
sg83
g79
sg76
(lp2175
g69
(g90
g71
NtRp2176
(dp2177
g74
(dp2178
g94
g95
ssg83
g2172
sg76
(lp2179
S'global_settings'
p2180
asbag69
(g90
g71
NtRp2181
(dp2182
g74
(dp2183
g101
g102
ssg83
g2172
sg76
(lp2184
S':'
asbag69
(g90
g71
NtRp2185
(dp2186
g74
(dp2187
sg83
g2172
sg76
(lp2188
g69
(g70
g71
NtRp2189
(dp2190
g74
(dp2191
g82
I5
ssg83
g2185
sg76
(lp2192
g69
(g78
g71
NtRp2193
(dp2194
g74
(dp2195
g82
I4
ssg83
Nsg76
(lp2196
g69
(g85
g71
NtRp2197
(dp2198
g74
(dp2199
sg83
g2193
sg76
(lp2200
g69
(g90
g71
NtRp2201
(dp2202
g74
(dp2203
g94
g95
ssg83
g2197
sg76
(lp2204
g1057
asbag69
(g90
g71
NtRp2205
(dp2206
g74
(dp2207
g101
g102
ssg83
g2197
sg76
(lp2208
S':'
asbag69
(g90
g71
NtRp2209
(dp2210
g74
(dp2211
sg83
g2197
sg76
(lp2212
g69
(g70
g71
NtRp2213
(dp2214
g74
(dp2215
g82
I4
ssg83
g2209
sg76
(lp2216
S"set(['C:\\\\Sites\\\\web2py\\\\applications\\\\welcome\\\\', 'C:\\\\Sites\\\\web2py\\\\applications\\\\admin\\\\', 'C:\\\\Sites\\\\web2py\\\\applications\\\\Sandbox\\\\'])"
p2217
asbasbasbag69
(g85
g71
NtRp2218
(dp2219
g74
(dp2220
sg83
g2193
sg76
(lp2221
g69
(g90
g71
NtRp2222
(dp2223
g74
(dp2224
g94
g95
ssg83
g2218
sg76
(lp2225
g1079
asbag69
(g90
g71
NtRp2226
(dp2227
g74
(dp2228
g101
g102
ssg83
g2218
sg76
(lp2229
S':'
asbag69
(g90
g71
NtRp2230
(dp2231
g74
(dp2232
sg83
g2218
sg76
(lp2233
g69
(g70
g71
NtRp2234
(dp2235
g74
(dp2236
g82
I4
ssg83
g2230
sg76
(lp2237
g1092
asbasbasbag69
(g85
g71
NtRp2238
(dp2239
g74
(dp2240
sg83
g2193
sg76
(lp2241
g69
(g90
g71
NtRp2242
(dp2243
g74
(dp2244
g94
g95
ssg83
g2238
sg76
(lp2245
g1101
asbag69
(g90
g71
NtRp2246
(dp2247
g74
(dp2248
g101
g102
ssg83
g2238
sg76
(lp2249
S':'
asbag69
(g90
g71
NtRp2250
(dp2251
g74
(dp2252
sg83
g2238
sg76
(lp2253
g69
(g70
g71
NtRp2254
(dp2255
g74
(dp2256
g82
I4
ssg83
g2250
sg76
(lp2257
g69
(g78
g71
NtRp2258
(dp2259
g74
(dp2260
g82
I3
ssg83
Nsg76
(lp2261
sbasbasbasbag69
(g85
g71
NtRp2262
(dp2263
g74
(dp2264
sg83
g2193
sg76
(lp2265
g69
(g90
g71
NtRp2266
(dp2267
g74
(dp2268
g94
g95
ssg83
g2262
sg76
(lp2269
g1126
asbag69
(g90
g71
NtRp2270
(dp2271
g74
(dp2272
g101
g102
ssg83
g2262
sg76
(lp2273
S':'
asbag69
(g90
g71
NtRp2274
(dp2275
g74
(dp2276
sg83
g2262
sg76
(lp2277
g69
(g70
g71
NtRp2278
(dp2279
g74
(dp2280
g82
I4
ssg83
g2274
sg76
(lp2281
S"<Values at 0x2e40a30: {'verbose': False, 'ip': '127.0.0.1', 'with_scheduler': False, 'ips': ['21.1.1.16', '192.168.214.1', '192.168.245.1'], 'shutdown_timeout': 5, 'taskbar': False, 'port': 8000, 'maxthreads': None, 'softcron': False, 'server_name': 'JPRT', 'bpython': False, 'nogui': False, 'pid_filename': 'httpserver.pid', 'extcron': False, 'runcron': False, 'run_system_tests': False, 'test': None, 'folder': 'C:\\\\Sites\\\\web2py', 'config': '', 'import_models': False, 'winservice': '', 'shell': None, 'run': '', 'log_filename': 'httpserver.log', 'debuglevel': 30, 'args': [''], 'socket_timeout': 5, 'ssl_ca_certificate': None, 'scheduler': None, 'profiler_filename': None, 'ssl_private_key': '', 'scheduler_groups': None, 'password': '<ask>', 'request_queue_size': 5, 'ssl_certificate': '', 'cronjob': False, 'numthreads': None, 'quiet': False, 'interfaces': None, 'minthreads': None, 'timeout': 10, 'plain': False, 'nobanner': False}>"
p2282
asbasbasbag69
(g85
g71
NtRp2283
(dp2284
g74
(dp2285
sg83
g2193
sg76
(lp2286
g69
(g90
g71
NtRp2287
(dp2288
g74
(dp2289
g94
g95
ssg83
g2283
sg76
(lp2290
g1148
asbag69
(g90
g71
NtRp2291
(dp2292
g74
(dp2293
g101
g102
ssg83
g2283
sg76
(lp2294
S':'
asbag69
(g90
g71
NtRp2295
(dp2296
g74
(dp2297
sg83
g2283
sg76
(lp2298
g69
(g70
g71
NtRp2299
(dp2300
g74
(dp2301
g82
I4
ssg83
g2295
sg76
(lp2302
S'set([])'
p2303
asbasbasbag69
(g85
g71
NtRp2304
(dp2305
g74
(dp2306
sg83
g2193
sg76
(lp2307
g69
(g90
g71
NtRp2308
(dp2309
g74
(dp2310
g94
g95
ssg83
g2304
sg76
(lp2311
g1170
asbag69
(g90
g71
NtRp2312
(dp2313
g74
(dp2314
g101
g102
ssg83
g2304
sg76
(lp2315
S':'
asbag69
(g90
g71
NtRp2316
(dp2317
g74
(dp2318
sg83
g2304
sg76
(lp2319
g69
(g70
g71
NtRp2320
(dp2321
g74
(dp2322
g82
I4
ssg83
g2316
sg76
(lp2323
g112
asbasbasbag69
(g85
g71
NtRp2324
(dp2325
g74
(dp2326
sg83
g2193
sg76
(lp2327
g69
(g90
g71
NtRp2328
(dp2329
g74
(dp2330
g94
g95
ssg83
g2324
sg76
(lp2331
g1191
asbag69
(g90
g71
NtRp2332
(dp2333
g74
(dp2334
g101
g102
ssg83
g2324
sg76
(lp2335
S':'
asbag69
(g90
g71
NtRp2336
(dp2337
g74
(dp2338
sg83
g2324
sg76
(lp2339
g69
(g70
g71
NtRp2340
(dp2341
g74
(dp2342
g82
I4
ssg83
g2336
sg76
(lp2343
g1204
asbasbasbag69
(g85
g71
NtRp2344
(dp2345
g74
(dp2346
sg83
g2193
sg76
(lp2347
g69
(g90
g71
NtRp2348
(dp2349
g74
(dp2350
g94
g95
ssg83
g2344
sg76
(lp2351
g1411
asbag69
(g90
g71
NtRp2352
(dp2353
g74
(dp2354
g101
g102
ssg83
g2344
sg76
(lp2355
S':'
asbag69
(g90
g71
NtRp2356
(dp2357
g74
(dp2358
sg83
g2344
sg76
(lp2359
g69
(g70
g71
NtRp2360
(dp2361
g74
(dp2362
g82
I4
ssg83
g2356
sg76
(lp2363
g112
asbasbasbag69
(g85
g71
NtRp2364
(dp2365
g74
(dp2366
sg83
g2193
sg76
(lp2367
g69
(g90
g71
NtRp2368
(dp2369
g74
(dp2370
g94
g95
ssg83
g2364
sg76
(lp2371
g1432
asbag69
(g90
g71
NtRp2372
(dp2373
g74
(dp2374
g101
g102
ssg83
g2364
sg76
(lp2375
S':'
asbag69
(g90
g71
NtRp2376
(dp2377
g74
(dp2378
sg83
g2364
sg76
(lp2379
g69
(g70
g71
NtRp2380
(dp2381
g74
(dp2382
g82
I4
ssg83
g2376
sg76
(lp2383
g112
asbasbasbag69
(g85
g71
NtRp2384
(dp2385
g74
(dp2386
sg83
g2193
sg76
(lp2387
g69
(g90
g71
NtRp2388
(dp2389
g74
(dp2390
g94
g95
ssg83
g2384
sg76
(lp2391
g1453
asbag69
(g90
g71
NtRp2392
(dp2393
g74
(dp2394
g101
g102
ssg83
g2384
sg76
(lp2395
S':'
asbag69
(g90
g71
NtRp2396
(dp2397
g74
(dp2398
sg83
g2384
sg76
(lp2399
g69
(g70
g71
NtRp2400
(dp2401
g74
(dp2402
g82
I4
ssg83
g2396
sg76
(lp2403
g69
(g78
g71
NtRp2404
(dp2405
g74
(dp2406
g82
I3
ssg83
Nsg76
(lp2407
g69
(g85
g71
NtRp2408
(dp2409
g74
(dp2410
sg83
g2404
sg76
(lp2411
g69
(g90
g71
NtRp2412
(dp2413
g74
(dp2414
sg83
g2408
sg76
(lp2415
g69
(g70
g71
NtRp2416
(dp2417
g74
(dp2418
g82
I3
ssg83
g2412
sg76
(lp2419
g1482
asbasbasbag69
(g85
g71
NtRp2420
(dp2421
g74
(dp2422
sg83
g2404
sg76
(lp2423
g69
(g90
g71
NtRp2424
(dp2425
g74
(dp2426
sg83
g2420
sg76
(lp2427
g69
(g70
g71
NtRp2428
(dp2429
g74
(dp2430
g82
I3
ssg83
g2424
sg76
(lp2431
g1495
asbasbasbag69
(g85
g71
NtRp2432
(dp2433
g74
(dp2434
sg83
g2404
sg76
(lp2435
g69
(g90
g71
NtRp2436
(dp2437
g74
(dp2438
sg83
g2432
sg76
(lp2439
g69
(g70
g71
NtRp2440
(dp2441
g74
(dp2442
g82
I3
ssg83
g2436
sg76
(lp2443
g1508
asbasbasbag69
(g85
g71
NtRp2444
(dp2445
g74
(dp2446
sg83
g2404
sg76
(lp2447
g69
(g90
g71
NtRp2448
(dp2449
g74
(dp2450
sg83
g2444
sg76
(lp2451
g69
(g70
g71
NtRp2452
(dp2453
g74
(dp2454
g82
I3
ssg83
g2448
sg76
(lp2455
g1521
asbasbasbag69
(g85
g71
NtRp2456
(dp2457
g74
(dp2458
sg83
g2404
sg76
(lp2459
g69
(g90
g71
NtRp2460
(dp2461
g74
(dp2462
sg83
g2456
sg76
(lp2463
g69
(g70
g71
NtRp2464
(dp2465
g74
(dp2466
g82
I3
ssg83
g2460
sg76
(lp2467
g1534
asbasbasbasbasbasbasbag69
(g85
g71
NtRp2468
(dp2469
g74
(dp2470
sg83
g2193
sg76
(lp2471
g69
(g90
g71
NtRp2472
(dp2473
g74
(dp2474
g94
g95
ssg83
g2468
sg76
(lp2475
g1801
asbag69
(g90
g71
NtRp2476
(dp2477
g74
(dp2478
g101
g102
ssg83
g2468
sg76
(lp2479
S':'
asbag69
(g90
g71
NtRp2480
(dp2481
g74
(dp2482
sg83
g2468
sg76
(lp2483
g69
(g70
g71
NtRp2484
(dp2485
g74
(dp2486
g82
I4
ssg83
g2480
sg76
(lp2487
g69
(g78
g71
NtRp2488
(dp2489
g74
(dp2490
g82
I3
ssg83
Nsg76
(lp2491
g69
(g85
g71
NtRp2492
(dp2493
g74
(dp2494
sg83
g2488
sg76
(lp2495
g69
(g90
g71
NtRp2496
(dp2497
g74
(dp2498
sg83
g2492
sg76
(lp2499
g69
(g70
g71
NtRp2500
(dp2501
g74
(dp2502
g82
I3
ssg83
g2496
sg76
(lp2503
S'2'
asbasbasbag69
(g85
g71
NtRp2504
(dp2505
g74
(dp2506
sg83
g2488
sg76
(lp2507
g69
(g90
g71
NtRp2508
(dp2509
g74
(dp2510
sg83
g2504
sg76
(lp2511
g69
(g70
g71
NtRp2512
(dp2513
g74
(dp2514
g82
I3
ssg83
g2508
sg76
(lp2515
S'2'
asbasbasbag69
(g85
g71
NtRp2516
(dp2517
g74
(dp2518
sg83
g2488
sg76
(lp2519
g69
(g90
g71
NtRp2520
(dp2521
g74
(dp2522
sg83
g2516
sg76
(lp2523
g69
(g70
g71
NtRp2524
(dp2525
g74
(dp2526
g82
I3
ssg83
g2520
sg76
(lp2527
S'1'
asbasbasbag69
(g85
g71
NtRp2528
(dp2529
g74
(dp2530
sg83
g2488
sg76
(lp2531
g69
(g90
g71
NtRp2532
(dp2533
g74
(dp2534
sg83
g2528
sg76
(lp2535
g69
(g70
g71
NtRp2536
(dp2537
g74
(dp2538
g82
I3
ssg83
g2532
sg76
(lp2539
S'datetime.datetime(2012, 10, 21, 16, 57, 4)'
p2540
asbasbasbag69
(g85
g71
NtRp2541
(dp2542
g74
(dp2543
sg83
g2488
sg76
(lp2544
g69
(g90
g71
NtRp2545
(dp2546
g74
(dp2547
sg83
g2541
sg76
(lp2548
g69
(g70
g71
NtRp2549
(dp2550
g74
(dp2551
g82
I3
ssg83
g2545
sg76
(lp2552
g1879
asbasbasbasbasbasbasbasbasbasbasbag69
(g85
g71
NtRp2553
(dp2554
g74
(dp2555
sg83
g79
sg76
(lp2556
g69
(g90
g71
NtRp2557
(dp2558
g74
(dp2559
g94
g95
ssg83
g2553
sg76
(lp2560
S'is_https'
p2561
asbag69
(g90
g71
NtRp2562
(dp2563
g74
(dp2564
g101
g102
ssg83
g2553
sg76
(lp2565
S':'
asbag69
(g90
g71
NtRp2566
(dp2567
g74
(dp2568
sg83
g2553
sg76
(lp2569
g69
(g70
g71
NtRp2570
(dp2571
g74
(dp2572
g82
I5
ssg83
g2566
sg76
(lp2573
g112
asbasbasbag69
(g85
g71
NtRp2574
(dp2575
g74
(dp2576
sg83
g79
sg76
(lp2577
g69
(g90
g71
NtRp2578
(dp2579
g74
(dp2580
g94
g95
ssg83
g2574
sg76
(lp2581
S'is_local'
p2582
asbag69
(g90
g71
NtRp2583
(dp2584
g74
(dp2585
g101
g102
ssg83
g2574
sg76
(lp2586
S':'
asbag69
(g90
g71
NtRp2587
(dp2588
g74
(dp2589
sg83
g2574
sg76
(lp2590
g69
(g70
g71
NtRp2591
(dp2592
g74
(dp2593
g82
I5
ssg83
g2587
sg76
(lp2594
g1988
asbasbasbag69
(g85
g71
NtRp2595
(dp2596
g74
(dp2597
sg83
g79
sg76
(lp2598
g69
(g90
g71
NtRp2599
(dp2600
g74
(dp2601
g94
g95
ssg83
g2595
sg76
(lp2602
S'is_restful'
p2603
asbag69
(g90
g71
NtRp2604
(dp2605
g74
(dp2606
g101
g102
ssg83
g2595
sg76
(lp2607
S':'
asbag69
(g90
g71
NtRp2608
(dp2609
g74
(dp2610
sg83
g2595
sg76
(lp2611
g69
(g70
g71
NtRp2612
(dp2613
g74
(dp2614
g82
I5
ssg83
g2608
sg76
(lp2615
g112
asbasbasbag69
(g85
g71
NtRp2616
(dp2617
g74
(dp2618
sg83
g79
sg76
(lp2619
g69
(g90
g71
NtRp2620
(dp2621
g74
(dp2622
g94
g95
ssg83
g2616
sg76
(lp2623
S'now'
p2624
asbag69
(g90
g71
NtRp2625
(dp2626
g74
(dp2627
g101
g102
ssg83
g2616
sg76
(lp2628
S':'
asbag69
(g90
g71
NtRp2629
(dp2630
g74
(dp2631
sg83
g2616
sg76
(lp2632
g69
(g70
g71
NtRp2633
(dp2634
g74
(dp2635
g82
I5
ssg83
g2629
sg76
(lp2636
S'datetime.datetime(2012, 11, 26, 8, 49, 14, 702000)'
p2637
asbasbasbag69
(g85
g71
NtRp2638
(dp2639
g74
(dp2640
sg83
g79
sg76
(lp2641
g69
(g90
g71
NtRp2642
(dp2643
g74
(dp2644
g94
g95
ssg83
g2638
sg76
(lp2645
S'post_vars'
p2646
asbag69
(g90
g71
NtRp2647
(dp2648
g74
(dp2649
g101
g102
ssg83
g2638
sg76
(lp2650
S':'
asbag69
(g90
g71
NtRp2651
(dp2652
g74
(dp2653
sg83
g2638
sg76
(lp2654
g69
(g70
g71
NtRp2655
(dp2656
g74
(dp2657
g82
I5
ssg83
g2651
sg76
(lp2658
g69
(g78
g71
NtRp2659
(dp2660
g74
(dp2661
g82
I4
ssg83
Nsg76
(lp2662
sbasbasbasbag69
(g85
g71
NtRp2663
(dp2664
g74
(dp2665
sg83
g79
sg76
(lp2666
g69
(g90
g71
NtRp2667
(dp2668
g74
(dp2669
g94
g95
ssg83
g2663
sg76
(lp2670
S'raw_args'
p2671
asbag69
(g90
g71
NtRp2672
(dp2673
g74
(dp2674
g101
g102
ssg83
g2663
sg76
(lp2675
S':'
asbag69
(g90
g71
NtRp2676
(dp2677
g74
(dp2678
sg83
g2663
sg76
(lp2679
g69
(g70
g71
NtRp2680
(dp2681
g74
(dp2682
g82
I5
ssg83
g2676
sg76
(lp2683
S''
asbasbasbag69
(g85
g71
NtRp2684
(dp2685
g74
(dp2686
sg83
g79
sg76
(lp2687
g69
(g90
g71
NtRp2688
(dp2689
g74
(dp2690
g94
g95
ssg83
g2684
sg76
(lp2691
S'raw_extension'
p2692
asbag69
(g90
g71
NtRp2693
(dp2694
g74
(dp2695
g101
g102
ssg83
g2684
sg76
(lp2696
S':'
asbag69
(g90
g71
NtRp2697
(dp2698
g74
(dp2699
sg83
g2684
sg76
(lp2700
g69
(g70
g71
NtRp2701
(dp2702
g74
(dp2703
g82
I5
ssg83
g2697
sg76
(lp2704
S'None'
p2705
asbasbasbag69
(g85
g71
NtRp2706
(dp2707
g74
(dp2708
sg83
g79
sg76
(lp2709
g69
(g90
g71
NtRp2710
(dp2711
g74
(dp2712
g94
g95
ssg83
g2706
sg76
(lp2713
S'url'
p2714
asbag69
(g90
g71
NtRp2715
(dp2716
g74
(dp2717
g101
g102
ssg83
g2706
sg76
(lp2718
S':'
asbag69
(g90
g71
NtRp2719
(dp2720
g74
(dp2721
sg83
g2706
sg76
(lp2722
g69
(g70
g71
NtRp2723
(dp2724
g74
(dp2725
g82
I5
ssg83
g2719
sg76
(lp2726
g1556
asbasbasbag69
(g85
g71
NtRp2727
(dp2728
g74
(dp2729
sg83
g79
sg76
(lp2730
g69
(g90
g71
NtRp2731
(dp2732
g74
(dp2733
g94
g95
ssg83
g2727
sg76
(lp2734
S'utcnow'
p2735
asbag69
(g90
g71
NtRp2736
(dp2737
g74
(dp2738
g101
g102
ssg83
g2727
sg76
(lp2739
S':'
asbag69
(g90
g71
NtRp2740
(dp2741
g74
(dp2742
sg83
g2727
sg76
(lp2743
g69
(g70
g71
NtRp2744
(dp2745
g74
(dp2746
g82
I5
ssg83
g2740
sg76
(lp2747
S'datetime.datetime(2012, 11, 26, 17, 49, 14, 702000)'
p2748
asbasbasbag69
(g85
g71
NtRp2749
(dp2750
g74
(dp2751
sg83
g79
sg76
(lp2752
g69
(g90
g71
NtRp2753
(dp2754
g74
(dp2755
g94
g95
ssg83
g2749
sg76
(lp2756
S'uuid'
p2757
asbag69
(g90
g71
NtRp2758
(dp2759
g74
(dp2760
g101
g102
ssg83
g2749
sg76
(lp2761
S':'
asbag69
(g90
g71
NtRp2762
(dp2763
g74
(dp2764
sg83
g2749
sg76
(lp2765
g69
(g70
g71
NtRp2766
(dp2767
g74
(dp2768
g82
I5
ssg83
g2762
sg76
(lp2769
S'Sandbox/127.0.0.1.2012-11-26.08-49-14.1e44cc6b-ec35-4c2d-b49f-7dd53d8c7bc8'
p2770
asbasbasbag69
(g85
g71
NtRp2771
(dp2772
g74
(dp2773
sg83
g79
sg76
(lp2774
g69
(g90
g71
NtRp2775
(dp2776
g74
(dp2777
g94
g95
ssg83
g2771
sg76
(lp2778
S'vars'
p2779
asbag69
(g90
g71
NtRp2780
(dp2781
g74
(dp2782
g101
g102
ssg83
g2771
sg76
(lp2783
S':'
asbag69
(g90
g71
NtRp2784
(dp2785
g74
(dp2786
sg83
g2771
sg76
(lp2787
g69
(g70
g71
NtRp2788
(dp2789
g74
(dp2790
g82
I5
ssg83
g2784
sg76
(lp2791
g69
(g78
g71
NtRp2792
(dp2793
g74
(dp2794
g82
I4
ssg83
Nsg76
(lp2795
sbasbasbasbag69
(g85
g71
NtRp2796
(dp2797
g74
(dp2798
sg83
g79
sg76
(lp2799
g69
(g90
g71
NtRp2800
(dp2801
g74
(dp2802
g94
g95
ssg83
g2796
sg76
(lp2803
S'wsgi'
p2804
asbag69
(g90
g71
NtRp2805
(dp2806
g74
(dp2807
g101
g102
ssg83
g2796
sg76
(lp2808
S':'
asbag69
(g90
g71
NtRp2809
(dp2810
g74
(dp2811
sg83
g2796
sg76
(lp2812
g69
(g70
g71
NtRp2813
(dp2814
g74
(dp2815
g82
I5
ssg83
g2809
sg76
(lp2816
g69
(g78
g71
NtRp2817
(dp2818
g74
(dp2819
g82
I4
ssg83
Nsg76
(lp2820
g69
(g85
g71
NtRp2821
(dp2822
g74
(dp2823
sg83
g2817
sg76
(lp2824
g69
(g90
g71
NtRp2825
(dp2826
g74
(dp2827
g94
g95
ssg83
g2821
sg76
(lp2828
S'environ'
p2829
asbag69
(g90
g71
NtRp2830
(dp2831
g74
(dp2832
g101
g102
ssg83
g2821
sg76
(lp2833
S':'
asbag69
(g90
g71
NtRp2834
(dp2835
g74
(dp2836
sg83
g2821
sg76
(lp2837
g69
(g70
g71
NtRp2838
(dp2839
g74
(dp2840
g82
I4
ssg83
g2834
sg76
(lp2841
g69
(g78
g71
NtRp2842
(dp2843
g74
(dp2844
g82
I3
ssg83
Nsg76
(lp2845
g69
(g85
g71
NtRp2846
(dp2847
g74
(dp2848
sg83
g2842
sg76
(lp2849
g69
(g90
g71
NtRp2850
(dp2851
g74
(dp2852
g94
g95
ssg83
g2846
sg76
(lp2853
S'HTTP_ACCEPT'
p2854
asbag69
(g90
g71
NtRp2855
(dp2856
g74
(dp2857
g101
g102
ssg83
g2846
sg76
(lp2858
S':'
asbag69
(g90
g71
NtRp2859
(dp2860
g74
(dp2861
sg83
g2846
sg76
(lp2862
g69
(g70
g71
NtRp2863
(dp2864
g74
(dp2865
g82
I3
ssg83
g2859
sg76
(lp2866
g1226
asbasbasbag69
(g85
g71
NtRp2867
(dp2868
g74
(dp2869
sg83
g2842
sg76
(lp2870
g69
(g90
g71
NtRp2871
(dp2872
g74
(dp2873
g94
g95
ssg83
g2867
sg76
(lp2874
S'HTTP_ACCEPT_CHARSET'
p2875
asbag69
(g90
g71
NtRp2876
(dp2877
g74
(dp2878
g101
g102
ssg83
g2867
sg76
(lp2879
S':'
asbag69
(g90
g71
NtRp2880
(dp2881
g74
(dp2882
sg83
g2867
sg76
(lp2883
g69
(g70
g71
NtRp2884
(dp2885
g74
(dp2886
g82
I3
ssg83
g2880
sg76
(lp2887
g1248
asbasbasbag69
(g85
g71
NtRp2888
(dp2889
g74
(dp2890
sg83
g2842
sg76
(lp2891
g69
(g90
g71
NtRp2892
(dp2893
g74
(dp2894
g94
g95
ssg83
g2888
sg76
(lp2895
S'HTTP_ACCEPT_ENCODING'
p2896
asbag69
(g90
g71
NtRp2897
(dp2898
g74
(dp2899
g101
g102
ssg83
g2888
sg76
(lp2900
S':'
asbag69
(g90
g71
NtRp2901
(dp2902
g74
(dp2903
sg83
g2888
sg76
(lp2904
g69
(g70
g71
NtRp2905
(dp2906
g74
(dp2907
g82
I3
ssg83
g2901
sg76
(lp2908
g1270
asbasbasbag69
(g85
g71
NtRp2909
(dp2910
g74
(dp2911
sg83
g2842
sg76
(lp2912
g69
(g90
g71
NtRp2913
(dp2914
g74
(dp2915
g94
g95
ssg83
g2909
sg76
(lp2916
S'HTTP_ACCEPT_LANGUAGE'
p2917
asbag69
(g90
g71
NtRp2918
(dp2919
g74
(dp2920
g101
g102
ssg83
g2909
sg76
(lp2921
S':'
asbag69
(g90
g71
NtRp2922
(dp2923
g74
(dp2924
sg83
g2909
sg76
(lp2925
g69
(g70
g71
NtRp2926
(dp2927
g74
(dp2928
g82
I3
ssg83
g2922
sg76
(lp2929
g1292
asbasbasbag69
(g85
g71
NtRp2930
(dp2931
g74
(dp2932
sg83
g2842
sg76
(lp2933
g69
(g90
g71
NtRp2934
(dp2935
g74
(dp2936
g94
g95
ssg83
g2930
sg76
(lp2937
S'HTTP_CONNECTION'
p2938
asbag69
(g90
g71
NtRp2939
(dp2940
g74
(dp2941
g101
g102
ssg83
g2930
sg76
(lp2942
S':'
asbag69
(g90
g71
NtRp2943
(dp2944
g74
(dp2945
sg83
g2930
sg76
(lp2946
g69
(g70
g71
NtRp2947
(dp2948
g74
(dp2949
g82
I3
ssg83
g2943
sg76
(lp2950
g1314
asbasbasbag69
(g85
g71
NtRp2951
(dp2952
g74
(dp2953
sg83
g2842
sg76
(lp2954
g69
(g90
g71
NtRp2955
(dp2956
g74
(dp2957
g94
g95
ssg83
g2951
sg76
(lp2958
S'HTTP_COOKIE'
p2959
asbag69
(g90
g71
NtRp2960
(dp2961
g74
(dp2962
g101
g102
ssg83
g2951
sg76
(lp2963
S':'
asbag69
(g90
g71
NtRp2964
(dp2965
g74
(dp2966
sg83
g2951
sg76
(lp2967
g69
(g70
g71
NtRp2968
(dp2969
g74
(dp2970
g82
I3
ssg83
g2964
sg76
(lp2971
g1336
asbasbasbag69
(g85
g71
NtRp2972
(dp2973
g74
(dp2974
sg83
g2842
sg76
(lp2975
g69
(g90
g71
NtRp2976
(dp2977
g74
(dp2978
g94
g95
ssg83
g2972
sg76
(lp2979
S'HTTP_HOST'
p2980
asbag69
(g90
g71
NtRp2981
(dp2982
g74
(dp2983
g101
g102
ssg83
g2972
sg76
(lp2984
S':'
asbag69
(g90
g71
NtRp2985
(dp2986
g74
(dp2987
sg83
g2972
sg76
(lp2988
g69
(g70
g71
NtRp2989
(dp2990
g74
(dp2991
g82
I3
ssg83
g2985
sg76
(lp2992
g1358
asbasbasbag69
(g85
g71
NtRp2993
(dp2994
g74
(dp2995
sg83
g2842
sg76
(lp2996
g69
(g90
g71
NtRp2997
(dp2998
g74
(dp2999
g94
g95
ssg83
g2993
sg76
(lp3000
S'HTTP_REFERER'
p3001
asbag69
(g90
g71
NtRp3002
(dp3003
g74
(dp3004
g101
g102
ssg83
g2993
sg76
(lp3005
S':'
asbag69
(g90
g71
NtRp3006
(dp3007
g74
(dp3008
sg83
g2993
sg76
(lp3009
g69
(g70
g71
NtRp3010
(dp3011
g74
(dp3012
g82
I3
ssg83
g3006
sg76
(lp3013
g1380
asbasbasbag69
(g85
g71
NtRp3014
(dp3015
g74
(dp3016
sg83
g2842
sg76
(lp3017
g69
(g90
g71
NtRp3018
(dp3019
g74
(dp3020
g94
g95
ssg83
g3014
sg76
(lp3021
S'HTTP_USER_AGENT'
p3022
asbag69
(g90
g71
NtRp3023
(dp3024
g74
(dp3025
g101
g102
ssg83
g3014
sg76
(lp3026
S':'
asbag69
(g90
g71
NtRp3027
(dp3028
g74
(dp3029
sg83
g3014
sg76
(lp3030
g69
(g70
g71
NtRp3031
(dp3032
g74
(dp3033
g82
I3
ssg83
g3027
sg76
(lp3034
g1402
asbasbasbag69
(g85
g71
NtRp3035
(dp3036
g74
(dp3037
sg83
g2842
sg76
(lp3038
g69
(g90
g71
NtRp3039
(dp3040
g74
(dp3041
g94
g95
ssg83
g3035
sg76
(lp3042
S'PATH_INFO'
p3043
asbag69
(g90
g71
NtRp3044
(dp3045
g74
(dp3046
g101
g102
ssg83
g3035
sg76
(lp3047
S':'
asbag69
(g90
g71
NtRp3048
(dp3049
g74
(dp3050
sg83
g3035
sg76
(lp3051
g69
(g70
g71
NtRp3052
(dp3053
g74
(dp3054
g82
I3
ssg83
g3048
sg76
(lp3055
g1556
asbasbasbag69
(g85
g71
NtRp3056
(dp3057
g74
(dp3058
sg83
g2842
sg76
(lp3059
g69
(g90
g71
NtRp3060
(dp3061
g74
(dp3062
g94
g95
ssg83
g3056
sg76
(lp3063
S'QUERY_STRING'
p3064
asbag69
(g90
g71
NtRp3065
(dp3066
g74
(dp3067
g101
g102
ssg83
g3056
sg76
(lp3068
S':'
asbag69
(g90
g71
NtRp3069
(dp3070
g74
(dp3071
sg83
g3056
sg76
(lp3072
g69
(g70
g71
NtRp3073
(dp3074
g74
(dp3075
g82
I3
ssg83
g3069
sg76
(lp3076
S''
asbasbasbag69
(g85
g71
NtRp3077
(dp3078
g74
(dp3079
sg83
g2842
sg76
(lp3080
g69
(g90
g71
NtRp3081
(dp3082
g74
(dp3083
g94
g95
ssg83
g3077
sg76
(lp3084
S'REMOTE_ADDR'
p3085
asbag69
(g90
g71
NtRp3086
(dp3087
g74
(dp3088
g101
g102
ssg83
g3077
sg76
(lp3089
S':'
asbag69
(g90
g71
NtRp3090
(dp3091
g74
(dp3092
sg83
g3077
sg76
(lp3093
g69
(g70
g71
NtRp3094
(dp3095
g74
(dp3096
g82
I3
ssg83
g3090
sg76
(lp3097
g224
asbasbasbag69
(g85
g71
NtRp3098
(dp3099
g74
(dp3100
sg83
g2842
sg76
(lp3101
g69
(g90
g71
NtRp3102
(dp3103
g74
(dp3104
g94
g95
ssg83
g3098
sg76
(lp3105
S'REMOTE_PORT'
p3106
asbag69
(g90
g71
NtRp3107
(dp3108
g74
(dp3109
g101
g102
ssg83
g3098
sg76
(lp3110
S':'
asbag69
(g90
g71
NtRp3111
(dp3112
g74
(dp3113
sg83
g3098
sg76
(lp3114
g69
(g70
g71
NtRp3115
(dp3116
g74
(dp3117
g82
I3
ssg83
g3111
sg76
(lp3118
g1620
asbasbasbag69
(g85
g71
NtRp3119
(dp3120
g74
(dp3121
sg83
g2842
sg76
(lp3122
g69
(g90
g71
NtRp3123
(dp3124
g74
(dp3125
g94
g95
ssg83
g3119
sg76
(lp3126
S'REQUEST_METHOD'
p3127
asbag69
(g90
g71
NtRp3128
(dp3129
g74
(dp3130
g101
g102
ssg83
g3119
sg76
(lp3131
S':'
asbag69
(g90
g71
NtRp3132
(dp3133
g74
(dp3134
sg83
g3119
sg76
(lp3135
g69
(g70
g71
NtRp3136
(dp3137
g74
(dp3138
g82
I3
ssg83
g3132
sg76
(lp3139
g1642
asbasbasbag69
(g85
g71
NtRp3140
(dp3141
g74
(dp3142
sg83
g2842
sg76
(lp3143
g69
(g90
g71
NtRp3144
(dp3145
g74
(dp3146
g94
g95
ssg83
g3140
sg76
(lp3147
S'REQUEST_URI'
p3148
asbag69
(g90
g71
NtRp3149
(dp3150
g74
(dp3151
g101
g102
ssg83
g3140
sg76
(lp3152
S':'
asbag69
(g90
g71
NtRp3153
(dp3154
g74
(dp3155
sg83
g3140
sg76
(lp3156
g69
(g70
g71
NtRp3157
(dp3158
g74
(dp3159
g82
I3
ssg83
g3153
sg76
(lp3160
g1556
asbasbasbag69
(g85
g71
NtRp3161
(dp3162
g74
(dp3163
sg83
g2842
sg76
(lp3164
g69
(g90
g71
NtRp3165
(dp3166
g74
(dp3167
g94
g95
ssg83
g3161
sg76
(lp3168
S'SCRIPT_NAME'
p3169
asbag69
(g90
g71
NtRp3170
(dp3171
g74
(dp3172
g101
g102
ssg83
g3161
sg76
(lp3173
S':'
asbag69
(g90
g71
NtRp3174
(dp3175
g74
(dp3176
sg83
g3161
sg76
(lp3177
g69
(g70
g71
NtRp3178
(dp3179
g74
(dp3180
g82
I3
ssg83
g3174
sg76
(lp3181
S''
asbasbasbag69
(g85
g71
NtRp3182
(dp3183
g74
(dp3184
sg83
g2842
sg76
(lp3185
g69
(g90
g71
NtRp3186
(dp3187
g74
(dp3188
g94
g95
ssg83
g3182
sg76
(lp3189
S'SERVER_NAME'
p3190
asbag69
(g90
g71
NtRp3191
(dp3192
g74
(dp3193
g101
g102
ssg83
g3182
sg76
(lp3194
S':'
asbag69
(g90
g71
NtRp3195
(dp3196
g74
(dp3197
sg83
g3182
sg76
(lp3198
g69
(g70
g71
NtRp3199
(dp3200
g74
(dp3201
g82
I3
ssg83
g3195
sg76
(lp3202
g1521
asbasbasbag69
(g85
g71
NtRp3203
(dp3204
g74
(dp3205
sg83
g2842
sg76
(lp3206
g69
(g90
g71
NtRp3207
(dp3208
g74
(dp3209
g94
g95
ssg83
g3203
sg76
(lp3210
S'SERVER_PORT'
p3211
asbag69
(g90
g71
NtRp3212
(dp3213
g74
(dp3214
g101
g102
ssg83
g3203
sg76
(lp3215
S':'
asbag69
(g90
g71
NtRp3216
(dp3217
g74
(dp3218
sg83
g3203
sg76
(lp3219
g69
(g70
g71
NtRp3220
(dp3221
g74
(dp3222
g82
I3
ssg83
g3216
sg76
(lp3223
g1727
asbasbasbag69
(g85
g71
NtRp3224
(dp3225
g74
(dp3226
sg83
g2842
sg76
(lp3227
g69
(g90
g71
NtRp3228
(dp3229
g74
(dp3230
g94
g95
ssg83
g3224
sg76
(lp3231
S'SERVER_PROTOCOL'
p3232
asbag69
(g90
g71
NtRp3233
(dp3234
g74
(dp3235
g101
g102
ssg83
g3224
sg76
(lp3236
S':'
asbag69
(g90
g71
NtRp3237
(dp3238
g74
(dp3239
sg83
g3224
sg76
(lp3240
g69
(g70
g71
NtRp3241
(dp3242
g74
(dp3243
g82
I3
ssg83
g3237
sg76
(lp3244
g1749
asbasbasbag69
(g85
g71
NtRp3245
(dp3246
g74
(dp3247
sg83
g2842
sg76
(lp3248
g69
(g90
g71
NtRp3249
(dp3250
g74
(dp3251
g94
g95
ssg83
g3245
sg76
(lp3252
S'SERVER_SOFTWARE'
p3253
asbag69
(g90
g71
NtRp3254
(dp3255
g74
(dp3256
g101
g102
ssg83
g3245
sg76
(lp3257
S':'
asbag69
(g90
g71
NtRp3258
(dp3259
g74
(dp3260
sg83
g3245
sg76
(lp3261
g69
(g70
g71
NtRp3262
(dp3263
g74
(dp3264
g82
I3
ssg83
g3258
sg76
(lp3265
g1771
asbasbasbag69
(g85
g71
NtRp3266
(dp3267
g74
(dp3268
sg83
g2842
sg76
(lp3269
g69
(g90
g71
NtRp3270
(dp3271
g74
(dp3272
g94
g95
ssg83
g3266
sg76
(lp3273
S'wsgi.errors'
p3274
asbag69
(g90
g71
NtRp3275
(dp3276
g74
(dp3277
g101
g102
ssg83
g3266
sg76
(lp3278
S':'
asbag69
(g90
g71
NtRp3279
(dp3280
g74
(dp3281
sg83
g3266
sg76
(lp3282
g69
(g70
g71
NtRp3283
(dp3284
g74
(dp3285
g82
I3
ssg83
g3279
sg76
(lp3286
S"<open file '<stderr>', mode 'w' at 0x003250D0>"
p3287
asbasbasbag69
(g85
g71
NtRp3288
(dp3289
g74
(dp3290
sg83
g2842
sg76
(lp3291
g69
(g90
g71
NtRp3292
(dp3293
g74
(dp3294
g94
g95
ssg83
g3288
sg76
(lp3295
S'wsgi.file_wrapper'
p3296
asbag69
(g90
g71
NtRp3297
(dp3298
g74
(dp3299
g101
g102
ssg83
g3288
sg76
(lp3300
S':'
asbag69
(g90
g71
NtRp3301
(dp3302
g74
(dp3303
sg83
g3288
sg76
(lp3304
g69
(g70
g71
NtRp3305
(dp3306
g74
(dp3307
g82
I3
ssg83
g3301
sg76
(lp3308
S'<class wsgiref.util.FileWrapper at 0x02DEEDC0>'
p3309
asbasbasbag69
(g85
g71
NtRp3310
(dp3311
g74
(dp3312
sg83
g2842
sg76
(lp3313
g69
(g90
g71
NtRp3314
(dp3315
g74
(dp3316
g94
g95
ssg83
g3310
sg76
(lp3317
S'wsgi.input'
p3318
asbag69
(g90
g71
NtRp3319
(dp3320
g74
(dp3321
g101
g102
ssg83
g3310
sg76
(lp3322
S':'
asbag69
(g90
g71
NtRp3323
(dp3324
g74
(dp3325
sg83
g3310
sg76
(lp3326
g69
(g70
g71
NtRp3327
(dp3328
g74
(dp3329
g82
I3
ssg83
g3323
sg76
(lp3330
S'<cStringIO.StringO object at 0x0329AF20>'
p3331
asbasbasbag69
(g85
g71
NtRp3332
(dp3333
g74
(dp3334
sg83
g2842
sg76
(lp3335
g69
(g90
g71
NtRp3336
(dp3337
g74
(dp3338
g94
g95
ssg83
g3332
sg76
(lp3339
S'wsgi.multiprocess'
p3340
asbag69
(g90
g71
NtRp3341
(dp3342
g74
(dp3343
g101
g102
ssg83
g3332
sg76
(lp3344
S':'
asbag69
(g90
g71
NtRp3345
(dp3346
g74
(dp3347
sg83
g3332
sg76
(lp3348
g69
(g70
g71
NtRp3349
(dp3350
g74
(dp3351
g82
I3
ssg83
g3345
sg76
(lp3352
g112
asbasbasbag69
(g85
g71
NtRp3353
(dp3354
g74
(dp3355
sg83
g2842
sg76
(lp3356
g69
(g90
g71
NtRp3357
(dp3358
g74
(dp3359
g94
g95
ssg83
g3353
sg76
(lp3360
S'wsgi.multithread'
p3361
asbag69
(g90
g71
NtRp3362
(dp3363
g74
(dp3364
g101
g102
ssg83
g3353
sg76
(lp3365
S':'
asbag69
(g90
g71
NtRp3366
(dp3367
g74
(dp3368
sg83
g3353
sg76
(lp3369
g69
(g70
g71
NtRp3370
(dp3371
g74
(dp3372
g82
I3
ssg83
g3366
sg76
(lp3373
g1988
asbasbasbag69
(g85
g71
NtRp3374
(dp3375
g74
(dp3376
sg83
g2842
sg76
(lp3377
g69
(g90
g71
NtRp3378
(dp3379
g74
(dp3380
g94
g95
ssg83
g3374
sg76
(lp3381
S'wsgi.run_once'
p3382
asbag69
(g90
g71
NtRp3383
(dp3384
g74
(dp3385
g101
g102
ssg83
g3374
sg76
(lp3386
S':'
asbag69
(g90
g71
NtRp3387
(dp3388
g74
(dp3389
sg83
g3374
sg76
(lp3390
g69
(g70
g71
NtRp3391
(dp3392
g74
(dp3393
g82
I3
ssg83
g3387
sg76
(lp3394
g112
asbasbasbag69
(g85
g71
NtRp3395
(dp3396
g74
(dp3397
sg83
g2842
sg76
(lp3398
g69
(g90
g71
NtRp3399
(dp3400
g74
(dp3401
g94
g95
ssg83
g3395
sg76
(lp3402
S'wsgi.url_scheme'
p3403
asbag69
(g90
g71
NtRp3404
(dp3405
g74
(dp3406
g101
g102
ssg83
g3395
sg76
(lp3407
S':'
asbag69
(g90
g71
NtRp3408
(dp3409
g74
(dp3410
sg83
g3395
sg76
(lp3411
g69
(g70
g71
NtRp3412
(dp3413
g74
(dp3414
g82
I3
ssg83
g3408
sg76
(lp3415
g2031
asbasbasbag69
(g85
g71
NtRp3416
(dp3417
g74
(dp3418
sg83
g2842
sg76
(lp3419
g69
(g90
g71
NtRp3420
(dp3421
g74
(dp3422
g94
g95
ssg83
g3416
sg76
(lp3423
S'wsgi.version'
p3424
asbag69
(g90
g71
NtRp3425
(dp3426
g74
(dp3427
g101
g102
ssg83
g3416
sg76
(lp3428
S':'
asbag69
(g90
g71
NtRp3429
(dp3430
g74
(dp3431
sg83
g3416
sg76
(lp3432
g69
(g70
g71
NtRp3433
(dp3434
g74
(dp3435
g82
I3
ssg83
g3429
sg76
(lp3436
S'1'
asbasbasbasbasbasbasbasbasbasbasbasbasbsS'frames'
p3437
(lp3438
(dp3439
S'file'
p3440
S'C:\\Sites\\web2py\\gluon\\restricted.py'
p3441
sS'dump'
p3442
(dp3443
sS'lnum'
p3444
I211
sS'lines'
p3445
(dp3446
sS'call'
p3447
S"(code='# -*- coding: utf-8 -*-\\n### required - do no del...locals()\\n\\nresponse._vars=response._caller(index)\\n', environment={'A': <class 'gluon.html.A'>, 'Auth': <class 'gluon.tools.Auth'>, 'B': <class 'gluon.html.B'>, 'BEAUTIFY': <class 'gluon.html.BEAUTIFY'>, 'BODY': <class 'gluon.html.BODY'>, 'BR': <class 'gluon.html.BR'>, 'BUTTON': <class 'gluon.html.BUTTON'>, 'CAT': <class 'gluon.html.CAT'>, 'CENTER': <class 'gluon.html.CENTER'>, 'CLEANUP': <class 'gluon.validators.CLEANUP'>, ...}, layer=r'C:\\Sites\\web2py\\applications\\Sandbox\\controllers/default.py')"
p3448
sS'func'
p3449
S'restricted'
p3450
sa(dp3451
g3440
S'C:\\Sites\\web2py\\gluon\\restricted.py'
p3452
sg3442
(dp3453
sg3444
I194
sg3445
(dp3454
sg3447
S"(code='# -*- coding: utf-8 -*-\\n### required - do no del...locals()\\n\\nresponse._vars=response._caller(index)\\n', layer=r'C:\\Sites\\web2py\\applications\\Sandbox\\controllers/default.py')"
p3455
sg3449
S'compile2'
p3456
sasS'pyver'
p3457
S'Python 2.7: C:\\Sites\\web2py\\web2py.exe'
p3458
sS'session'
p3459
g69
(g70
g71
NtRp3460
(dp3461
g74
(dp3462
sg76
(lp3463
g69
(g78
g71
NtRp3464
(dp3465
g74
(dp3466
g82
I5
ssg83
Nsg76
(lp3467
sbasbsS'etype'
p3468
S"<type 'exceptions.SyntaxError'>"
p3469
sS'date'
p3470
S'Mon Nov 26 08:49:14 2012'
p3471
sS'response'
p3472
g69
(g70
g71
NtRp3473
(dp3474
g74
(dp3475
sg76
(lp3476
g69
(g78
g71
NtRp3477
(dp3478
g74
(dp3479
g82
I5
ssg83
Nsg76
(lp3480
g69
(g85
g71
NtRp3481
(dp3482
g74
(dp3483
sg83
g3477
sg76
(lp3484
g69
(g90
g71
NtRp3485
(dp3486
g74
(dp3487
g94
g95
ssg83
g3481
sg76
(lp3488
g167
asbag69
(g90
g71
NtRp3489
(dp3490
g74
(dp3491
g101
g102
ssg83
g3481
sg76
(lp3492
S':'
asbag69
(g90
g71
NtRp3493
(dp3494
g74
(dp3495
sg83
g3481
sg76
(lp3496
g69
(g70
g71
NtRp3497
(dp3498
g74
(dp3499
g82
I5
ssg83
g3493
sg76
(lp3500
S'<cStringIO.StringO object at 0x0329AB60>'
p3501
asbasbasbag69
(g85
g71
NtRp3502
(dp3503
g74
(dp3504
sg83
g3477
sg76
(lp3505
g69
(g90
g71
NtRp3506
(dp3507
g74
(dp3508
g94
g95
ssg83
g3502
sg76
(lp3509
g255
asbag69
(g90
g71
NtRp3510
(dp3511
g74
(dp3512
g101
g102
ssg83
g3502
sg76
(lp3513
S':'
asbag69
(g90
g71
NtRp3514
(dp3515
g74
(dp3516
sg83
g3502
sg76
(lp3517
g69
(g70
g71
NtRp3518
(dp3519
g74
(dp3520
g82
I5
ssg83
g3514
sg76
(lp3521
g69
(g78
g71
NtRp3522
(dp3523
g74
(dp3524
g82
I4
ssg83
Nsg76
(lp3525
g69
(g85
g71
NtRp3526
(dp3527
g74
(dp3528
sg83
g3522
sg76
(lp3529
g69
(g90
g71
NtRp3530
(dp3531
g74
(dp3532
g94
g95
ssg83
g3526
sg76
(lp3533
S'session_id_sandbox'
p3534
asbag69
(g90
g71
NtRp3535
(dp3536
g74
(dp3537
g101
g102
ssg83
g3526
sg76
(lp3538
S':'
asbag69
(g90
g71
NtRp3539
(dp3540
g74
(dp3541
sg83
g3526
sg76
(lp3542
g69
(g70
g71
NtRp3543
(dp3544
g74
(dp3545
g82
I4
ssg83
g3539
sg76
(lp3546
S'127.0.0.1-b3a351de-80b2-477e-94de-c64c889394c1'
p3547
ag69
(g78
g71
NtRp3548
(dp3549
g74
(dp3550
g82
I3
ssg83
Nsg76
(lp3551
g69
(g85
g71
NtRp3552
(dp3553
g74
(dp3554
sg83
g3548
sg76
(lp3555
g69
(g90
g71
NtRp3556
(dp3557
g74
(dp3558
g94
g95
ssg83
g3552
sg76
(lp3559
g306
asbag69
(g90
g71
NtRp3560
(dp3561
g74
(dp3562
g101
g102
ssg83
g3552
sg76
(lp3563
S':'
asbag69
(g90
g71
NtRp3564
(dp3565
g74
(dp3566
sg83
g3552
sg76
(lp3567
g69
(g70
g71
NtRp3568
(dp3569
g74
(dp3570
g82
I3
ssg83
g3564
sg76
(lp3571
S''
asbasbasbag69
(g85
g71
NtRp3572
(dp3573
g74
(dp3574
sg83
g3548
sg76
(lp3575
g69
(g90
g71
NtRp3576
(dp3577
g74
(dp3578
g94
g95
ssg83
g3572
sg76
(lp3579
g327
asbag69
(g90
g71
NtRp3580
(dp3581
g74
(dp3582
g101
g102
ssg83
g3572
sg76
(lp3583
S':'
asbag69
(g90
g71
NtRp3584
(dp3585
g74
(dp3586
sg83
g3572
sg76
(lp3587
g69
(g70
g71
NtRp3588
(dp3589
g74
(dp3590
g82
I3
ssg83
g3584
sg76
(lp3591
S''
asbasbasbag69
(g85
g71
NtRp3592
(dp3593
g74
(dp3594
sg83
g3548
sg76
(lp3595
g69
(g90
g71
NtRp3596
(dp3597
g74
(dp3598
g94
g95
ssg83
g3592
sg76
(lp3599
g348
asbag69
(g90
g71
NtRp3600
(dp3601
g74
(dp3602
g101
g102
ssg83
g3592
sg76
(lp3603
S':'
asbag69
(g90
g71
NtRp3604
(dp3605
g74
(dp3606
sg83
g3592
sg76
(lp3607
g69
(g70
g71
NtRp3608
(dp3609
g74
(dp3610
g82
I3
ssg83
g3604
sg76
(lp3611
S''
asbasbasbag69
(g85
g71
NtRp3612
(dp3613
g74
(dp3614
sg83
g3548
sg76
(lp3615
g69
(g90
g71
NtRp3616
(dp3617
g74
(dp3618
g94
g95
ssg83
g3612
sg76
(lp3619
g369
asbag69
(g90
g71
NtRp3620
(dp3621
g74
(dp3622
g101
g102
ssg83
g3612
sg76
(lp3623
S':'
asbag69
(g90
g71
NtRp3624
(dp3625
g74
(dp3626
sg83
g3612
sg76
(lp3627
g69
(g70
g71
NtRp3628
(dp3629
g74
(dp3630
g82
I3
ssg83
g3624
sg76
(lp3631
S''
asbasbasbag69
(g85
g71
NtRp3632
(dp3633
g74
(dp3634
sg83
g3548
sg76
(lp3635
g69
(g90
g71
NtRp3636
(dp3637
g74
(dp3638
g94
g95
ssg83
g3632
sg76
(lp3639
g390
asbag69
(g90
g71
NtRp3640
(dp3641
g74
(dp3642
g101
g102
ssg83
g3632
sg76
(lp3643
S':'
asbag69
(g90
g71
NtRp3644
(dp3645
g74
(dp3646
sg83
g3632
sg76
(lp3647
g69
(g70
g71
NtRp3648
(dp3649
g74
(dp3650
g82
I3
ssg83
g3644
sg76
(lp3651
S''
asbasbasbag69
(g85
g71
NtRp3652
(dp3653
g74
(dp3654
sg83
g3548
sg76
(lp3655
g69
(g90
g71
NtRp3656
(dp3657
g74
(dp3658
g94
g95
ssg83
g3652
sg76
(lp3659
g411
asbag69
(g90
g71
NtRp3660
(dp3661
g74
(dp3662
g101
g102
ssg83
g3652
sg76
(lp3663
S':'
asbag69
(g90
g71
NtRp3664
(dp3665
g74
(dp3666
sg83
g3652
sg76
(lp3667
g69
(g70
g71
NtRp3668
(dp3669
g74
(dp3670
g82
I3
ssg83
g3664
sg76
(lp3671
S'/'
asbasbasbag69
(g85
g71
NtRp3672
(dp3673
g74
(dp3674
sg83
g3548
sg76
(lp3675
g69
(g90
g71
NtRp3676
(dp3677
g74
(dp3678
g94
g95
ssg83
g3672
sg76
(lp3679
g432
asbag69
(g90
g71
NtRp3680
(dp3681
g74
(dp3682
g101
g102
ssg83
g3672
sg76
(lp3683
S':'
asbag69
(g90
g71
NtRp3684
(dp3685
g74
(dp3686
sg83
g3672
sg76
(lp3687
g69
(g70
g71
NtRp3688
(dp3689
g74
(dp3690
g82
I3
ssg83
g3684
sg76
(lp3691
S''
asbasbasbag69
(g85
g71
NtRp3692
(dp3693
g74
(dp3694
sg83
g3548
sg76
(lp3695
g69
(g90
g71
NtRp3696
(dp3697
g74
(dp3698
g94
g95
ssg83
g3692
sg76
(lp3699
g453
asbag69
(g90
g71
NtRp3700
(dp3701
g74
(dp3702
g101
g102
ssg83
g3692
sg76
(lp3703
S':'
asbag69
(g90
g71
NtRp3704
(dp3705
g74
(dp3706
sg83
g3692
sg76
(lp3707
g69
(g70
g71
NtRp3708
(dp3709
g74
(dp3710
g82
I3
ssg83
g3704
sg76
(lp3711
S''
asbasbasbasbasbasbasbasbasbasbasbag69
(g85
g71
NtRp3712
(dp3713
g74
(dp3714
sg83
g3477
sg76
(lp3715
g69
(g90
g71
NtRp3716
(dp3717
g74
(dp3718
g94
g95
ssg83
g3712
sg76
(lp3719
S'delimiters'
p3720
asbag69
(g90
g71
NtRp3721
(dp3722
g74
(dp3723
g101
g102
ssg83
g3712
sg76
(lp3724
S':'
asbag69
(g90
g71
NtRp3725
(dp3726
g74
(dp3727
sg83
g3712
sg76
(lp3728
g69
(g70
g71
NtRp3729
(dp3730
g74
(dp3731
g82
I5
ssg83
g3725
sg76
(lp3732
g69
(g78
g71
NtRp3733
(dp3734
g74
(dp3735
g82
I4
ssg83
Nsg76
(lp3736
g69
(g85
g71
NtRp3737
(dp3738
g74
(dp3739
sg83
g3733
sg76
(lp3740
g69
(g90
g71
NtRp3741
(dp3742
g74
(dp3743
sg83
g3737
sg76
(lp3744
g69
(g70
g71
NtRp3745
(dp3746
g74
(dp3747
g82
I4
ssg83
g3741
sg76
(lp3748
S'{{'
p3749
asbasbasbag69
(g85
g71
NtRp3750
(dp3751
g74
(dp3752
sg83
g3733
sg76
(lp3753
g69
(g90
g71
NtRp3754
(dp3755
g74
(dp3756
sg83
g3750
sg76
(lp3757
g69
(g70
g71
NtRp3758
(dp3759
g74
(dp3760
g82
I4
ssg83
g3754
sg76
(lp3761
S'}}'
p3762
asbasbasbasbasbasbasbag69
(g85
g71
NtRp3763
(dp3764
g74
(dp3765
sg83
g3477
sg76
(lp3766
g69
(g90
g71
NtRp3767
(dp3768
g74
(dp3769
g94
g95
ssg83
g3763
sg76
(lp3770
S'files'
p3771
asbag69
(g90
g71
NtRp3772
(dp3773
g74
(dp3774
g101
g102
ssg83
g3763
sg76
(lp3775
S':'
asbag69
(g90
g71
NtRp3776
(dp3777
g74
(dp3778
sg83
g3763
sg76
(lp3779
g69
(g70
g71
NtRp3780
(dp3781
g74
(dp3782
g82
I5
ssg83
g3776
sg76
(lp3783
g69
(g78
g71
NtRp3784
(dp3785
g74
(dp3786
g82
I4
ssg83
Nsg76
(lp3787
sbasbasbasbag69
(g85
g71
NtRp3788
(dp3789
g74
(dp3790
sg83
g3477
sg76
(lp3791
g69
(g90
g71
NtRp3792
(dp3793
g74
(dp3794
g94
g95
ssg83
g3788
sg76
(lp3795
S'flash'
p3796
asbag69
(g90
g71
NtRp3797
(dp3798
g74
(dp3799
g101
g102
ssg83
g3788
sg76
(lp3800
S':'
asbag69
(g90
g71
NtRp3801
(dp3802
g74
(dp3803
sg83
g3788
sg76
(lp3804
g69
(g70
g71
NtRp3805
(dp3806
g74
(dp3807
g82
I5
ssg83
g3801
sg76
(lp3808
S''
asbasbasbag69
(g85
g71
NtRp3809
(dp3810
g74
(dp3811
sg83
g3477
sg76
(lp3812
g69
(g90
g71
NtRp3813
(dp3814
g74
(dp3815
g94
g95
ssg83
g3809
sg76
(lp3816
S'generic_patterns'
p3817
asbag69
(g90
g71
NtRp3818
(dp3819
g74
(dp3820
g101
g102
ssg83
g3809
sg76
(lp3821
S':'
asbag69
(g90
g71
NtRp3822
(dp3823
g74
(dp3824
sg83
g3809
sg76
(lp3825
g69
(g70
g71
NtRp3826
(dp3827
g74
(dp3828
g82
I5
ssg83
g3822
sg76
(lp3829
g69
(g78
g71
NtRp3830
(dp3831
g74
(dp3832
g82
I4
ssg83
Nsg76
(lp3833
g69
(g85
g71
NtRp3834
(dp3835
g74
(dp3836
sg83
g3830
sg76
(lp3837
g69
(g90
g71
NtRp3838
(dp3839
g74
(dp3840
sg83
g3834
sg76
(lp3841
g69
(g70
g71
NtRp3842
(dp3843
g74
(dp3844
g82
I4
ssg83
g3838
sg76
(lp3845
S'*'
asbasbasbasbasbasbasbag69
(g85
g71
NtRp3846
(dp3847
g74
(dp3848
sg83
g3477
sg76
(lp3849
g69
(g90
g71
NtRp3850
(dp3851
g74
(dp3852
g94
g95
ssg83
g3846
sg76
(lp3853
S'headers'
p3854
asbag69
(g90
g71
NtRp3855
(dp3856
g74
(dp3857
g101
g102
ssg83
g3846
sg76
(lp3858
S':'
asbag69
(g90
g71
NtRp3859
(dp3860
g74
(dp3861
sg83
g3846
sg76
(lp3862
g69
(g70
g71
NtRp3863
(dp3864
g74
(dp3865
g82
I5
ssg83
g3859
sg76
(lp3866
g69
(g78
g71
NtRp3867
(dp3868
g74
(dp3869
g82
I4
ssg83
Nsg76
(lp3870
g69
(g85
g71
NtRp3871
(dp3872
g74
(dp3873
sg83
g3867
sg76
(lp3874
g69
(g90
g71
NtRp3875
(dp3876
g74
(dp3877
g94
g95
ssg83
g3871
sg76
(lp3878
S'X-Powered-By'
p3879
asbag69
(g90
g71
NtRp3880
(dp3881
g74
(dp3882
g101
g102
ssg83
g3871
sg76
(lp3883
S':'
asbag69
(g90
g71
NtRp3884
(dp3885
g74
(dp3886
sg83
g3871
sg76
(lp3887
g69
(g70
g71
NtRp3888
(dp3889
g74
(dp3890
g82
I4
ssg83
g3884
sg76
(lp3891
S'web2py'
p3892
asbasbasbasbasbasbasbag69
(g85
g71
NtRp3893
(dp3894
g74
(dp3895
sg83
g3477
sg76
(lp3896
g69
(g90
g71
NtRp3897
(dp3898
g74
(dp3899
g94
g95
ssg83
g3893
sg76
(lp3900
S'menu'
p3901
asbag69
(g90
g71
NtRp3902
(dp3903
g74
(dp3904
g101
g102
ssg83
g3893
sg76
(lp3905
S':'
asbag69
(g90
g71
NtRp3906
(dp3907
g74
(dp3908
sg83
g3893
sg76
(lp3909
g69
(g70
g71
NtRp3910
(dp3911
g74
(dp3912
g82
I5
ssg83
g3906
sg76
(lp3913
g69
(g78
g71
NtRp3914
(dp3915
g74
(dp3916
g82
I4
ssg83
Nsg76
(lp3917
g69
(g85
g71
NtRp3918
(dp3919
g74
(dp3920
sg83
g3914
sg76
(lp3921
g69
(g90
g71
NtRp3922
(dp3923
g74
(dp3924
sg83
g3918
sg76
(lp3925
g69
(g70
g71
NtRp3926
(dp3927
g74
(dp3928
g82
I4
ssg83
g3922
sg76
(lp3929
g69
(g78
g71
NtRp3930
(dp3931
g74
(dp3932
g82
I3
ssg83
Nsg76
(lp3933
g69
(g85
g71
NtRp3934
(dp3935
g74
(dp3936
sg83
g3930
sg76
(lp3937
g69
(g90
g71
NtRp3938
(dp3939
g74
(dp3940
sg83
g3934
sg76
(lp3941
g69
(g70
g71
NtRp3942
(dp3943
g74
(dp3944
g82
I3
ssg83
g3938
sg76
(lp3945
cgluon.languages
lazyT_unpickle
p3946
(S't\x05\x00\x00\x00Index'
tRp3947
asbasbasbag69
(g85
g71
NtRp3948
(dp3949
g74
(dp3950
sg83
g3930
sg76
(lp3951
g69
(g90
g71
NtRp3952
(dp3953
g74
(dp3954
sg83
g3948
sg76
(lp3955
g69
(g70
g71
NtRp3956
(dp3957
g74
(dp3958
g82
I3
ssg83
g3952
sg76
(lp3959
g1988
asbasbasbag69
(g85
g71
NtRp3960
(dp3961
g74
(dp3962
sg83
g3930
sg76
(lp3963
g69
(g90
g71
NtRp3964
(dp3965
g74
(dp3966
sg83
g3960
sg76
(lp3967
g69
(g70
g71
NtRp3968
(dp3969
g74
(dp3970
g82
I3
ssg83
g3964
sg76
(lp3971
S'/Sandbox/default/index'
p3972
asbasbasbag69
(g85
g71
NtRp3973
(dp3974
g74
(dp3975
sg83
g3930
sg76
(lp3976
g69
(g90
g71
NtRp3977
(dp3978
g74
(dp3979
sg83
g3973
sg76
(lp3980
g69
(g70
g71
NtRp3981
(dp3982
g74
(dp3983
g82
I3
ssg83
g3977
sg76
(lp3984
g69
(g78
g71
NtRp3985
(dp3986
g74
(dp3987
g82
I2
ssg83
Nsg76
(lp3988
sbasbasbasbasbasbasbasbag69
(g85
g71
NtRp3989
(dp3990
g74
(dp3991
sg83
g3914
sg76
(lp3992
g69
(g90
g71
NtRp3993
(dp3994
g74
(dp3995
sg83
g3989
sg76
(lp3996
g69
(g70
g71
NtRp3997
(dp3998
g74
(dp3999
g82
I4
ssg83
g3993
sg76
(lp4000
g69
(g78
g71
NtRp4001
(dp4002
g74
(dp4003
g82
I3
ssg83
Nsg76
(lp4004
g69
(g85
g71
NtRp4005
(dp4006
g74
(dp4007
sg83
g4001
sg76
(lp4008
g69
(g90
g71
NtRp4009
(dp4010
g74
(dp4011
sg83
g4005
sg76
(lp4012
g69
(g70
g71
NtRp4013
(dp4014
g74
(dp4015
g82
I3
ssg83
g4009
sg76
(lp4016
g3946
(S't\x04\x00\x00\x00Test'
tRp4017
asbasbasbag69
(g85
g71
NtRp4018
(dp4019
g74
(dp4020
sg83
g4001
sg76
(lp4021
g69
(g90
g71
NtRp4022
(dp4023
g74
(dp4024
sg83
g4018
sg76
(lp4025
g69
(g70
g71
NtRp4026
(dp4027
g74
(dp4028
g82
I3
ssg83
g4022
sg76
(lp4029
g112
asbasbasbag69
(g85
g71
NtRp4030
(dp4031
g74
(dp4032
sg83
g4001
sg76
(lp4033
g69
(g90
g71
NtRp4034
(dp4035
g74
(dp4036
sg83
g4030
sg76
(lp4037
g69
(g70
g71
NtRp4038
(dp4039
g74
(dp4040
g82
I3
ssg83
g4034
sg76
(lp4041
S'/Sandbox/default/test'
p4042
asbasbasbag69
(g85
g71
NtRp4043
(dp4044
g74
(dp4045
sg83
g4001
sg76
(lp4046
g69
(g90
g71
NtRp4047
(dp4048
g74
(dp4049
sg83
g4043
sg76
(lp4050
g69
(g70
g71
NtRp4051
(dp4052
g74
(dp4053
g82
I3
ssg83
g4047
sg76
(lp4054
g69
(g78
g71
NtRp4055
(dp4056
g74
(dp4057
g82
I2
ssg83
Nsg76
(lp4058
sbasbasbasbasbasbasbasbasbasbasbasbag69
(g85
g71
NtRp4059
(dp4060
g74
(dp4061
sg83
g3477
sg76
(lp4062
g69
(g90
g71
NtRp4063
(dp4064
g74
(dp4065
g94
g95
ssg83
g4059
sg76
(lp4066
S'meta'
p4067
asbag69
(g90
g71
NtRp4068
(dp4069
g74
(dp4070
g101
g102
ssg83
g4059
sg76
(lp4071
S':'
asbag69
(g90
g71
NtRp4072
(dp4073
g74
(dp4074
sg83
g4059
sg76
(lp4075
g69
(g70
g71
NtRp4076
(dp4077
g74
(dp4078
g82
I5
ssg83
g4072
sg76
(lp4079
g69
(g78
g71
NtRp4080
(dp4081
g74
(dp4082
g82
I4
ssg83
Nsg76
(lp4083
g69
(g85
g71
NtRp4084
(dp4085
g74
(dp4086
sg83
g4080
sg76
(lp4087
g69
(g90
g71
NtRp4088
(dp4089
g74
(dp4090
g94
g95
ssg83
g4084
sg76
(lp4091
S'author'
p4092
asbag69
(g90
g71
NtRp4093
(dp4094
g74
(dp4095
g101
g102
ssg83
g4084
sg76
(lp4096
S':'
asbag69
(g90
g71
NtRp4097
(dp4098
g74
(dp4099
sg83
g4084
sg76
(lp4100
g69
(g70
g71
NtRp4101
(dp4102
g74
(dp4103
g82
I4
ssg83
g4097
sg76
(lp4104
S'JP <you@example.com>'
p4105
asbasbasbag69
(g85
g71
NtRp4106
(dp4107
g74
(dp4108
sg83
g4080
sg76
(lp4109
g69
(g90
g71
NtRp4110
(dp4111
g74
(dp4112
g94
g95
ssg83
g4106
sg76
(lp4113
S'description'
p4114
asbag69
(g90
g71
NtRp4115
(dp4116
g74
(dp4117
g101
g102
ssg83
g4106
sg76
(lp4118
S':'
asbag69
(g90
g71
NtRp4119
(dp4120
g74
(dp4121
sg83
g4106
sg76
(lp4122
g69
(g70
g71
NtRp4123
(dp4124
g74
(dp4125
g82
I4
ssg83
g4119
sg76
(lp4126
S''
asbasbasbag69
(g85
g71
NtRp4127
(dp4128
g74
(dp4129
sg83
g4080
sg76
(lp4130
g69
(g90
g71
NtRp4131
(dp4132
g74
(dp4133
g94
g95
ssg83
g4127
sg76
(lp4134
S'keywords'
p4135
asbag69
(g90
g71
NtRp4136
(dp4137
g74
(dp4138
g101
g102
ssg83
g4127
sg76
(lp4139
S':'
asbag69
(g90
g71
NtRp4140
(dp4141
g74
(dp4142
sg83
g4127
sg76
(lp4143
g69
(g70
g71
NtRp4144
(dp4145
g74
(dp4146
g82
I4
ssg83
g4140
sg76
(lp4147
S''
asbasbasbasbasbasbasbag69
(g85
g71
NtRp4148
(dp4149
g74
(dp4150
sg83
g3477
sg76
(lp4151
g69
(g90
g71
NtRp4152
(dp4153
g74
(dp4154
g94
g95
ssg83
g4148
sg76
(lp4155
S'models_to_run'
p4156
asbag69
(g90
g71
NtRp4157
(dp4158
g74
(dp4159
g101
g102
ssg83
g4148
sg76
(lp4160
S':'
asbag69
(g90
g71
NtRp4161
(dp4162
g74
(dp4163
sg83
g4148
sg76
(lp4164
g69
(g70
g71
NtRp4165
(dp4166
g74
(dp4167
g82
I5
ssg83
g4161
sg76
(lp4168
g69
(g78
g71
NtRp4169
(dp4170
g74
(dp4171
g82
I4
ssg83
Nsg76
(lp4172
g69
(g85
g71
NtRp4173
(dp4174
g74
(dp4175
sg83
g4169
sg76
(lp4176
g69
(g90
g71
NtRp4177
(dp4178
g74
(dp4179
sg83
g4173
sg76
(lp4180
g69
(g70
g71
NtRp4181
(dp4182
g74
(dp4183
g82
I4
ssg83
g4177
sg76
(lp4184
S'^\\w+\\.py$'
p4185
asbasbasbag69
(g85
g71
NtRp4186
(dp4187
g74
(dp4188
sg83
g4169
sg76
(lp4189
g69
(g90
g71
NtRp4190
(dp4191
g74
(dp4192
sg83
g4186
sg76
(lp4193
g69
(g70
g71
NtRp4194
(dp4195
g74
(dp4196
g82
I4
ssg83
g4190
sg76
(lp4197
S'^default/\\w+\\.py$'
p4198
asbasbasbag69
(g85
g71
NtRp4199
(dp4200
g74
(dp4201
sg83
g4169
sg76
(lp4202
g69
(g90
g71
NtRp4203
(dp4204
g74
(dp4205
sg83
g4199
sg76
(lp4206
g69
(g70
g71
NtRp4207
(dp4208
g74
(dp4209
g82
I4
ssg83
g4203
sg76
(lp4210
S'^default/index/\\w+\\.py$'
p4211
asbasbasbasbasbasbasbag69
(g85
g71
NtRp4212
(dp4213
g74
(dp4214
sg83
g3477
sg76
(lp4215
g69
(g90
g71
NtRp4216
(dp4217
g74
(dp4218
g94
g95
ssg83
g4212
sg76
(lp4219
S'postprocessing'
p4220
asbag69
(g90
g71
NtRp4221
(dp4222
g74
(dp4223
g101
g102
ssg83
g4212
sg76
(lp4224
S':'
asbag69
(g90
g71
NtRp4225
(dp4226
g74
(dp4227
sg83
g4212
sg76
(lp4228
g69
(g70
g71
NtRp4229
(dp4230
g74
(dp4231
g82
I5
ssg83
g4225
sg76
(lp4232
g69
(g78
g71
NtRp4233
(dp4234
g74
(dp4235
g82
I4
ssg83
Nsg76
(lp4236
sbasbasbasbag69
(g85
g71
NtRp4237
(dp4238
g74
(dp4239
sg83
g3477
sg76
(lp4240
g69
(g90
g71
NtRp4241
(dp4242
g74
(dp4243
g94
g95
ssg83
g4237
sg76
(lp4244
S'session_cookie_expires'
p4245
asbag69
(g90
g71
NtRp4246
(dp4247
g74
(dp4248
g101
g102
ssg83
g4237
sg76
(lp4249
S':'
asbag69
(g90
g71
NtRp4250
(dp4251
g74
(dp4252
sg83
g4237
sg76
(lp4253
g69
(g70
g71
NtRp4254
(dp4255
g74
(dp4256
g82
I5
ssg83
g4250
sg76
(lp4257
S'None'
p4258
asbasbasbag69
(g85
g71
NtRp4259
(dp4260
g74
(dp4261
sg83
g3477
sg76
(lp4262
g69
(g90
g71
NtRp4263
(dp4264
g74
(dp4265
g94
g95
ssg83
g4259
sg76
(lp4266
S'session_data_name'
p4267
asbag69
(g90
g71
NtRp4268
(dp4269
g74
(dp4270
g101
g102
ssg83
g4259
sg76
(lp4271
S':'
asbag69
(g90
g71
NtRp4272
(dp4273
g74
(dp4274
sg83
g4259
sg76
(lp4275
g69
(g70
g71
NtRp4276
(dp4277
g74
(dp4278
g82
I5
ssg83
g4272
sg76
(lp4279
S'session_data_sandbox'
p4280
asbasbasbag69
(g85
g71
NtRp4281
(dp4282
g74
(dp4283
sg83
g3477
sg76
(lp4284
g69
(g90
g71
NtRp4285
(dp4286
g74
(dp4287
g94
g95
ssg83
g4281
sg76
(lp4288
S'session_filename'
p4289
asbag69
(g90
g71
NtRp4290
(dp4291
g74
(dp4292
g101
g102
ssg83
g4281
sg76
(lp4293
S':'
asbag69
(g90
g71
NtRp4294
(dp4295
g74
(dp4296
sg83
g4281
sg76
(lp4297
g69
(g70
g71
NtRp4298
(dp4299
g74
(dp4300
g82
I5
ssg83
g4294
sg76
(lp4301
S'C:\\Sites\\web2py\\applications\\Sandbox\\sessions\\127.0.0.1-b3a351de-80b2-477e-94de-c64c889394c1'
p4302
asbasbasbag69
(g85
g71
NtRp4303
(dp4304
g74
(dp4305
sg83
g3477
sg76
(lp4306
g69
(g90
g71
NtRp4307
(dp4308
g74
(dp4309
g94
g95
ssg83
g4303
sg76
(lp4310
S'session_id'
p4311
asbag69
(g90
g71
NtRp4312
(dp4313
g74
(dp4314
g101
g102
ssg83
g4303
sg76
(lp4315
S':'
asbag69
(g90
g71
NtRp4316
(dp4317
g74
(dp4318
sg83
g4303
sg76
(lp4319
g69
(g70
g71
NtRp4320
(dp4321
g74
(dp4322
g82
I5
ssg83
g4316
sg76
(lp4323
g3547
asbasbasbag69
(g85
g71
NtRp4324
(dp4325
g74
(dp4326
sg83
g3477
sg76
(lp4327
g69
(g90
g71
NtRp4328
(dp4329
g74
(dp4330
g94
g95
ssg83
g4324
sg76
(lp4331
S'session_id_name'
p4332
asbag69
(g90
g71
NtRp4333
(dp4334
g74
(dp4335
g101
g102
ssg83
g4324
sg76
(lp4336
S':'
asbag69
(g90
g71
NtRp4337
(dp4338
g74
(dp4339
sg83
g4324
sg76
(lp4340
g69
(g70
g71
NtRp4341
(dp4342
g74
(dp4343
g82
I5
ssg83
g4337
sg76
(lp4344
g3534
asbasbasbag69
(g85
g71
NtRp4345
(dp4346
g74
(dp4347
sg83
g3477
sg76
(lp4348
g69
(g90
g71
NtRp4349
(dp4350
g74
(dp4351
g94
g95
ssg83
g4345
sg76
(lp4352
S'session_new'
p4353
asbag69
(g90
g71
NtRp4354
(dp4355
g74
(dp4356
g101
g102
ssg83
g4345
sg76
(lp4357
S':'
asbag69
(g90
g71
NtRp4358
(dp4359
g74
(dp4360
sg83
g4345
sg76
(lp4361
g69
(g70
g71
NtRp4362
(dp4363
g74
(dp4364
g82
I5
ssg83
g4358
sg76
(lp4365
g1988
asbasbasbag69
(g85
g71
NtRp4366
(dp4367
g74
(dp4368
sg83
g3477
sg76
(lp4369
g69
(g90
g71
NtRp4370
(dp4371
g74
(dp4372
g94
g95
ssg83
g4366
sg76
(lp4373
S'session_storage_type'
p4374
asbag69
(g90
g71
NtRp4375
(dp4376
g74
(dp4377
g101
g102
ssg83
g4366
sg76
(lp4378
S':'
asbag69
(g90
g71
NtRp4379
(dp4380
g74
(dp4381
sg83
g4366
sg76
(lp4382
g69
(g70
g71
NtRp4383
(dp4384
g74
(dp4385
g82
I5
ssg83
g4379
sg76
(lp4386
g3440
asbasbasbag69
(g85
g71
NtRp4387
(dp4388
g74
(dp4389
sg83
g3477
sg76
(lp4390
g69
(g90
g71
NtRp4391
(dp4392
g74
(dp4393
g94
g95
ssg83
g4387
sg76
(lp4394
S'status'
p4395
asbag69
(g90
g71
NtRp4396
(dp4397
g74
(dp4398
g101
g102
ssg83
g4387
sg76
(lp4399
S':'
asbag69
(g90
g71
NtRp4400
(dp4401
g74
(dp4402
sg83
g4387
sg76
(lp4403
g69
(g70
g71
NtRp4404
(dp4405
g74
(dp4406
g82
I5
ssg83
g4400
sg76
(lp4407
S'200'
p4408
asbasbasbag69
(g85
g71
NtRp4409
(dp4410
g74
(dp4411
sg83
g3477
sg76
(lp4412
g69
(g90
g71
NtRp4413
(dp4414
g74
(dp4415
g94
g95
ssg83
g4409
sg76
(lp4416
S'subtitle'
p4417
asbag69
(g90
g71
NtRp4418
(dp4419
g74
(dp4420
g101
g102
ssg83
g4409
sg76
(lp4421
S':'
asbag69
(g90
g71
NtRp4422
(dp4423
g74
(dp4424
sg83
g4409
sg76
(lp4425
g69
(g70
g71
NtRp4426
(dp4427
g74
(dp4428
g82
I5
ssg83
g4422
sg76
(lp4429
S'powered by web2py'
p4430
asbasbasbag69
(g85
g71
NtRp4431
(dp4432
g74
(dp4433
sg83
g3477
sg76
(lp4434
g69
(g90
g71
NtRp4435
(dp4436
g74
(dp4437
g94
g95
ssg83
g4431
sg76
(lp4438
S'title'
p4439
asbag69
(g90
g71
NtRp4440
(dp4441
g74
(dp4442
g101
g102
ssg83
g4431
sg76
(lp4443
S':'
asbag69
(g90
g71
NtRp4444
(dp4445
g74
(dp4446
sg83
g4431
sg76
(lp4447
g69
(g70
g71
NtRp4448
(dp4449
g74
(dp4450
g82
I5
ssg83
g4444
sg76
(lp4451
S'Sandbox'
p4452
asbasbasbag69
(g85
g71
NtRp4453
(dp4454
g74
(dp4455
sg83
g3477
sg76
(lp4456
g69
(g90
g71
NtRp4457
(dp4458
g74
(dp4459
g94
g95
ssg83
g4453
sg76
(lp4460
S'view'
p4461
asbag69
(g90
g71
NtRp4462
(dp4463
g74
(dp4464
g101
g102
ssg83
g4453
sg76
(lp4465
S':'
asbag69
(g90
g71
NtRp4466
(dp4467
g74
(dp4468
sg83
g4453
sg76
(lp4469
g69
(g70
g71
NtRp4470
(dp4471
g74
(dp4472
g82
I5
ssg83
g4466
sg76
(lp4473
S'default/index.html'
p4474
asbasbasbasbasbsS'locals'
p4475
(dp4476
g4
S"r'C:\\Sites\\web2py\\applications\\Sandbox\\controllers/default.py'"
p4477
sg6
S"'# -*- coding: utf-8 -*-\\n### required - do no del...locals()\\n\\nresponse._vars=response._caller(index)\\n'"
p4478
sssS'traceback'
p4479
S'Traceback (most recent call last):\n  File "gluon/restricted.py", line 211, in restricted\n  File "gluon/restricted.py", line 194, in compile2\n  File "C:\\Sites\\web2py\\applications\\Sandbox\\controllers/default.py", line 20\n    grid=SQLFORM.grid(db.(db.marketplace6, user_signature=False)\n                         ^\nSyntaxError: invalid syntax\n'
p4480
s.